
main.elf:     file format elf32-avr

Sections:
Idx Name          Size      VMA       LMA       File off  Algn
  0 .data         0000003c  00800100  0000269a  0000274e  2**0
                  CONTENTS, ALLOC, LOAD, DATA
  1 .text         0000269a  00000000  00000000  000000b4  2**1
                  CONTENTS, ALLOC, LOAD, READONLY, CODE
  2 .bss          00000144  0080013c  0080013c  0000278a  2**0
                  ALLOC
  3 .eeprom       00000009  00810000  00810000  0000278a  2**0
                  CONTENTS, ALLOC, LOAD, DATA
  4 .comment      00000030  00000000  00000000  00002793  2**0
                  CONTENTS, READONLY
  5 .note.gnu.avr.deviceinfo 00000040  00000000  00000000  000027c4  2**2
                  CONTENTS, READONLY
  6 .debug_aranges 00000550  00000000  00000000  00002808  2**3
                  CONTENTS, READONLY, DEBUGGING
  7 .debug_info   00007f11  00000000  00000000  00002d58  2**0
                  CONTENTS, READONLY, DEBUGGING
  8 .debug_abbrev 00002000  00000000  00000000  0000ac69  2**0
                  CONTENTS, READONLY, DEBUGGING
  9 .debug_line   00003152  00000000  00000000  0000cc69  2**0
                  CONTENTS, READONLY, DEBUGGING
 10 .debug_frame  00000d08  00000000  00000000  0000fdbc  2**2
                  CONTENTS, READONLY, DEBUGGING
 11 .debug_str    00002e7b  00000000  00000000  00010ac4  2**0
                  CONTENTS, READONLY, DEBUGGING
 12 .debug_loc    00003689  00000000  00000000  0001393f  2**0
                  CONTENTS, READONLY, DEBUGGING
 13 .debug_ranges 00000440  00000000  00000000  00016fc8  2**0
                  CONTENTS, READONLY, DEBUGGING

Disassembly of section .text:

00000000 <__vectors>:
       0:	0c 94 8b 00 	jmp	0x116	; 0x116 <__ctors_end>
       4:	0c 94 f2 0f 	jmp	0x1fe4	; 0x1fe4 <__vector_1>
       8:	0c 94 19 10 	jmp	0x2032	; 0x2032 <__vector_2>
       c:	0c 94 b3 00 	jmp	0x166	; 0x166 <__bad_interrupt>
      10:	0c 94 b3 00 	jmp	0x166	; 0x166 <__bad_interrupt>
      14:	0c 94 b3 00 	jmp	0x166	; 0x166 <__bad_interrupt>
      18:	0c 94 b3 00 	jmp	0x166	; 0x166 <__bad_interrupt>
      1c:	0c 94 b3 00 	jmp	0x166	; 0x166 <__bad_interrupt>
      20:	0c 94 b3 00 	jmp	0x166	; 0x166 <__bad_interrupt>
      24:	0c 94 b3 00 	jmp	0x166	; 0x166 <__bad_interrupt>
      28:	0c 94 b3 00 	jmp	0x166	; 0x166 <__bad_interrupt>
      2c:	0c 94 b3 00 	jmp	0x166	; 0x166 <__bad_interrupt>
      30:	0c 94 b3 00 	jmp	0x166	; 0x166 <__bad_interrupt>
      34:	0c 94 b3 00 	jmp	0x166	; 0x166 <__bad_interrupt>
      38:	0c 94 b3 00 	jmp	0x166	; 0x166 <__bad_interrupt>
      3c:	0c 94 b3 00 	jmp	0x166	; 0x166 <__bad_interrupt>
      40:	0c 94 40 10 	jmp	0x2080	; 0x2080 <__vector_16>
      44:	0c 94 b3 00 	jmp	0x166	; 0x166 <__bad_interrupt>
      48:	0c 94 b3 00 	jmp	0x166	; 0x166 <__bad_interrupt>
      4c:	0c 94 b3 00 	jmp	0x166	; 0x166 <__bad_interrupt>
      50:	0c 94 b3 00 	jmp	0x166	; 0x166 <__bad_interrupt>
      54:	0c 94 b3 00 	jmp	0x166	; 0x166 <__bad_interrupt>
      58:	0c 94 b3 00 	jmp	0x166	; 0x166 <__bad_interrupt>
      5c:	0c 94 b3 00 	jmp	0x166	; 0x166 <__bad_interrupt>
      60:	0c 94 dc 0b 	jmp	0x17b8	; 0x17b8 <__vector_24>
      64:	0c 94 b3 00 	jmp	0x166	; 0x166 <__bad_interrupt>
      68:	bd 02       	muls	r27, r29
      6a:	13 02       	muls	r17, r19
      6c:	27 02       	muls	r18, r23
      6e:	2e 02       	muls	r18, r30
      70:	aa 02       	muls	r26, r26
      72:	35 02       	muls	r19, r21
      74:	40 02       	muls	r20, r16
      76:	57 02       	muls	r21, r23
      78:	5e 02       	muls	r21, r30
      7a:	71 02       	muls	r23, r17
      7c:	7c 02       	muls	r23, r28
      7e:	90 02       	muls	r25, r16
      80:	a3 02       	muls	r26, r19
      82:	c2 03       	fmuls	r20, r18
      84:	d2 03       	fmuls	r21, r18
      86:	e2 03       	fmuls	r22, r18
      88:	f3 03       	fmuls	r23, r19
      8a:	01 04       	cpc	r0, r1
      8c:	16 04       	cpc	r1, r6
      8e:	24 04       	cpc	r2, r4
      90:	3d 04       	cpc	r3, r13
      92:	4d 04       	cpc	r4, r13
      94:	5b 04       	cpc	r5, r11
      96:	69 04       	cpc	r6, r9
      98:	94 04       	cpc	r9, r4
      9a:	7e 04       	cpc	r7, r14
      9c:	85 06       	cpc	r8, r21
      9e:	8e 06       	cpc	r8, r30
      a0:	97 06       	cpc	r9, r23
      a2:	a3 06       	cpc	r10, r19
      a4:	aa 06       	cpc	r10, r26
      a6:	b1 06       	cpc	r11, r17
      a8:	b8 06       	cpc	r11, r24
      aa:	ea 06       	cpc	r14, r26
      ac:	f1 06       	cpc	r15, r17
      ae:	f8 06       	cpc	r15, r24
      b0:	00 07       	cpc	r16, r16
      b2:	0c 07       	cpc	r16, r28
      b4:	09 07       	cpc	r16, r25

000000b6 <__trampolines_end>:
      b6:	00 00       	nop
      b8:	00 08       	sbc	r0, r0
      ba:	00 02       	muls	r16, r16
      bc:	01 00       	.word	0x0001	; ????
      be:	00 03       	mulsu	r16, r16
      c0:	04 07       	cpc	r16, r20
	...

000000ca <digital_pin_to_bit_mask_PGM>:
      ca:	01 02 04 08 10 20 40 80 01 02 04 08 10 20 01 02     ..... @...... ..
      da:	04 08 10 20                                         ... 

000000de <digital_pin_to_port_PGM>:
      de:	04 04 04 04 04 04 04 04 02 02 02 02 02 02 03 03     ................
      ee:	03 03 03 03                                         ....

000000f2 <port_to_input_PGM>:
      f2:	00 00 00 00 23 00 26 00 29 00                       ....#.&.).

000000fc <port_to_output_PGM>:
      fc:	00 00 00 00 25 00 28 00 2b 00                       ....%.(.+.

00000106 <port_to_mode_PGM>:
     106:	00 00 00 00 24 00 27 00 2a 00                       ....$.'.*.

00000110 <__ctors_start>:
     110:	80 08       	sbc	r8, r0
     112:	a3 08       	sbc	r10, r3
     114:	78 0e       	add	r7, r24

00000116 <__ctors_end>:
     116:	11 24       	eor	r1, r1
     118:	1f be       	out	0x3f, r1	; 63
     11a:	cf ef       	ldi	r28, 0xFF	; 255
     11c:	d8 e0       	ldi	r29, 0x08	; 8
     11e:	de bf       	out	0x3e, r29	; 62
     120:	cd bf       	out	0x3d, r28	; 61

00000122 <__do_copy_data>:
     122:	11 e0       	ldi	r17, 0x01	; 1
     124:	a0 e0       	ldi	r26, 0x00	; 0
     126:	b1 e0       	ldi	r27, 0x01	; 1
     128:	ea e9       	ldi	r30, 0x9A	; 154
     12a:	f6 e2       	ldi	r31, 0x26	; 38
     12c:	02 c0       	rjmp	.+4      	; 0x132 <__do_copy_data+0x10>
     12e:	05 90       	lpm	r0, Z+
     130:	0d 92       	st	X+, r0
     132:	ac 33       	cpi	r26, 0x3C	; 60
     134:	b1 07       	cpc	r27, r17
     136:	d9 f7       	brne	.-10     	; 0x12e <__do_copy_data+0xc>

00000138 <__do_clear_bss>:
     138:	22 e0       	ldi	r18, 0x02	; 2
     13a:	ac e3       	ldi	r26, 0x3C	; 60
     13c:	b1 e0       	ldi	r27, 0x01	; 1
     13e:	01 c0       	rjmp	.+2      	; 0x142 <.do_clear_bss_start>

00000140 <.do_clear_bss_loop>:
     140:	1d 92       	st	X+, r1

00000142 <.do_clear_bss_start>:
     142:	a0 38       	cpi	r26, 0x80	; 128
     144:	b2 07       	cpc	r27, r18
     146:	e1 f7       	brne	.-8      	; 0x140 <.do_clear_bss_loop>

00000148 <__do_global_ctors>:
     148:	10 e0       	ldi	r17, 0x00	; 0
     14a:	cb e8       	ldi	r28, 0x8B	; 139
     14c:	d0 e0       	ldi	r29, 0x00	; 0
     14e:	04 c0       	rjmp	.+8      	; 0x158 <__do_global_ctors+0x10>
     150:	21 97       	sbiw	r28, 0x01	; 1
     152:	fe 01       	movw	r30, r28
     154:	0e 94 ea 11 	call	0x23d4	; 0x23d4 <__tablejump2__>
     158:	c8 38       	cpi	r28, 0x88	; 136
     15a:	d1 07       	cpc	r29, r17
     15c:	c9 f7       	brne	.-14     	; 0x150 <__do_global_ctors+0x8>
     15e:	0e 94 ae 0f 	call	0x1f5c	; 0x1f5c <main>
     162:	0c 94 4b 13 	jmp	0x2696	; 0x2696 <_exit>

00000166 <__bad_interrupt>:
     166:	0c 94 00 00 	jmp	0	; 0x0 <__vectors>

0000016a <_Z6wakeUpv>:
}

// деление без остатка
unsigned int f_div(unsigned int x, unsigned int y) {
	return (unsigned int)(x- (x % y)) / y;
}
     16a:	08 95       	ret

0000016c <_Z17buttonDoubleClickv>:
     16c:	80 91 50 01 	lds	r24, 0x0150	; 0x800150 <modeWork>
     170:	88 23       	and	r24, r24
     172:	e9 f0       	breq	.+58     	; 0x1ae <_Z17buttonDoubleClickv+0x42>
     174:	80 91 a2 01 	lds	r24, 0x01A2	; 0x8001a2 <dateTime>
     178:	80 93 52 01 	sts	0x0152, r24	; 0x800152 <prevSec>
     17c:	8a e0       	ldi	r24, 0x0A	; 10
     17e:	80 93 53 01 	sts	0x0153, r24	; 0x800153 <returnTime>
     182:	80 91 58 01 	lds	r24, 0x0158	; 0x800158 <editValue>
     186:	90 91 59 01 	lds	r25, 0x0159	; 0x800159 <editValue+0x1>
     18a:	01 97       	sbiw	r24, 0x01	; 1
     18c:	90 93 59 01 	sts	0x0159, r25	; 0x800159 <editValue+0x1>
     190:	80 93 58 01 	sts	0x0158, r24	; 0x800158 <editValue>
     194:	20 91 5b 01 	lds	r18, 0x015B	; 0x80015b <editValue+0x3>
     198:	30 e0       	ldi	r19, 0x00	; 0
     19a:	28 17       	cp	r18, r24
     19c:	39 07       	cpc	r19, r25
     19e:	3c f0       	brlt	.+14     	; 0x1ae <_Z17buttonDoubleClickv+0x42>
     1a0:	80 91 5a 01 	lds	r24, 0x015A	; 0x80015a <editValue+0x2>
     1a4:	90 e0       	ldi	r25, 0x00	; 0
     1a6:	90 93 59 01 	sts	0x0159, r25	; 0x800159 <editValue+0x1>
     1aa:	80 93 58 01 	sts	0x0158, r24	; 0x800158 <editValue>
     1ae:	08 95       	ret

000001b0 <_Z14resetTubeFlashv>:
     1b0:	e4 e6       	ldi	r30, 0x64	; 100
     1b2:	f1 e0       	ldi	r31, 0x01	; 1
     1b4:	14 82       	std	Z+4, r1	; 0x04
     1b6:	15 82       	std	Z+5, r1	; 0x05
     1b8:	16 82       	std	Z+6, r1	; 0x06
     1ba:	17 82       	std	Z+7, r1	; 0x07
     1bc:	10 86       	std	Z+8, r1	; 0x08
     1be:	11 86       	std	Z+9, r1	; 0x09
     1c0:	12 86       	std	Z+10, r1	; 0x0a
     1c2:	13 86       	std	Z+11, r1	; 0x0b
     1c4:	08 95       	ret

000001c6 <_Z17fillTubeDigitSymbhh>:
     1c6:	26 2f       	mov	r18, r22
     1c8:	48 2f       	mov	r20, r24
     1ca:	50 e0       	ldi	r21, 0x00	; 0
     1cc:	6a 30       	cpi	r22, 0x0A	; 10
     1ce:	30 f0       	brcs	.+12     	; 0x1dc <_Z17fillTubeDigitSymbhh+0x16>
     1d0:	86 2f       	mov	r24, r22
     1d2:	6a e0       	ldi	r22, 0x0A	; 10
     1d4:	0e 94 b6 11 	call	0x236c	; 0x236c <__udivmodqi4>
     1d8:	90 e0       	ldi	r25, 0x00	; 0
     1da:	02 c0       	rjmp	.+4      	; 0x1e0 <_Z17fillTubeDigitSymbhh+0x1a>
     1dc:	80 e0       	ldi	r24, 0x00	; 0
     1de:	90 e0       	ldi	r25, 0x00	; 0
     1e0:	fa 01       	movw	r30, r20
     1e2:	ec 59       	subi	r30, 0x9C	; 156
     1e4:	fe 4f       	sbci	r31, 0xFE	; 254
     1e6:	dc 01       	movw	r26, r24
     1e8:	a2 5f       	subi	r26, 0xF2	; 242
     1ea:	be 4f       	sbci	r27, 0xFE	; 254
     1ec:	8c 91       	ld	r24, X
     1ee:	80 83       	st	Z, r24
     1f0:	4f 5f       	subi	r20, 0xFF	; 255
     1f2:	5f 4f       	sbci	r21, 0xFF	; 255
     1f4:	2a 30       	cpi	r18, 0x0A	; 10
     1f6:	10 f4       	brcc	.+4      	; 0x1fc <_Z17fillTubeDigitSymbhh+0x36>
     1f8:	62 2f       	mov	r22, r18
     1fa:	05 c0       	rjmp	.+10     	; 0x206 <_Z17fillTubeDigitSymbhh+0x40>
     1fc:	82 2f       	mov	r24, r18
     1fe:	6a e0       	ldi	r22, 0x0A	; 10
     200:	0e 94 b6 11 	call	0x236c	; 0x236c <__udivmodqi4>
     204:	69 2f       	mov	r22, r25
     206:	70 e0       	ldi	r23, 0x00	; 0
     208:	fa 01       	movw	r30, r20
     20a:	ec 59       	subi	r30, 0x9C	; 156
     20c:	fe 4f       	sbci	r31, 0xFE	; 254
     20e:	db 01       	movw	r26, r22
     210:	a2 5f       	subi	r26, 0xF2	; 242
     212:	be 4f       	sbci	r27, 0xFE	; 254
     214:	8c 91       	ld	r24, X
     216:	80 83       	st	Z, r24
     218:	08 95       	ret

0000021a <_Z19fillTubeTemperaturev>:
     21a:	8d ea       	ldi	r24, 0xAD	; 173
     21c:	91 e0       	ldi	r25, 0x01	; 1
     21e:	0e 94 9a 09 	call	0x1334	; 0x1334 <_ZN9DS3231RTC12temperatureCEv>
     222:	9c 01       	movw	r18, r24
     224:	84 36       	cpi	r24, 0x64	; 100
     226:	91 05       	cpc	r25, r1
     228:	4c f0       	brlt	.+18     	; 0x23c <_Z19fillTubeTemperaturev+0x22>
     22a:	64 e6       	ldi	r22, 0x64	; 100
     22c:	70 e0       	ldi	r23, 0x00	; 0
     22e:	0e 94 d6 11 	call	0x23ac	; 0x23ac <__divmodhi4>
     232:	fb 01       	movw	r30, r22
     234:	e2 5f       	subi	r30, 0xF2	; 242
     236:	fe 4f       	sbci	r31, 0xFE	; 254
     238:	80 81       	ld	r24, Z
     23a:	02 c0       	rjmp	.+4      	; 0x240 <_Z19fillTubeTemperaturev+0x26>
     23c:	80 91 06 01 	lds	r24, 0x0106	; 0x800106 <specSymb>
     240:	80 93 65 01 	sts	0x0165, r24	; 0x800165 <tube+0x1>
     244:	c9 01       	movw	r24, r18
     246:	64 e6       	ldi	r22, 0x64	; 100
     248:	70 e0       	ldi	r23, 0x00	; 0
     24a:	0e 94 d6 11 	call	0x23ac	; 0x23ac <__divmodhi4>
     24e:	6a e0       	ldi	r22, 0x0A	; 10
     250:	70 e0       	ldi	r23, 0x00	; 0
     252:	0e 94 d6 11 	call	0x23ac	; 0x23ac <__divmodhi4>
     256:	fb 01       	movw	r30, r22
     258:	e2 5f       	subi	r30, 0xF2	; 242
     25a:	fe 4f       	sbci	r31, 0xFE	; 254
     25c:	20 81       	ld	r18, Z
     25e:	20 93 66 01 	sts	0x0166, r18	; 0x800166 <tube+0x2>
     262:	fc 01       	movw	r30, r24
     264:	e2 5f       	subi	r30, 0xF2	; 242
     266:	fe 4f       	sbci	r31, 0xFE	; 254
     268:	80 81       	ld	r24, Z
     26a:	80 93 67 01 	sts	0x0167, r24	; 0x800167 <tube+0x3>
     26e:	08 95       	ret

00000270 <_Z9sleepModev>:
     270:	42 e0       	ldi	r20, 0x02	; 2
     272:	50 e0       	ldi	r21, 0x00	; 0
     274:	65 eb       	ldi	r22, 0xB5	; 181
     276:	70 e0       	ldi	r23, 0x00	; 0
     278:	81 e0       	ldi	r24, 0x01	; 1
     27a:	0e 94 c0 0f 	call	0x1f80	; 0x1f80 <attachInterrupt>
     27e:	83 b7       	in	r24, 0x33	; 51
     280:	81 7f       	andi	r24, 0xF1	; 241
     282:	84 60       	ori	r24, 0x04	; 4
     284:	83 bf       	out	0x33, r24	; 51
     286:	83 b7       	in	r24, 0x33	; 51
     288:	81 60       	ori	r24, 0x01	; 1
     28a:	83 bf       	out	0x33, r24	; 51
     28c:	88 95       	sleep
     28e:	83 b7       	in	r24, 0x33	; 51
     290:	8e 7f       	andi	r24, 0xFE	; 254
     292:	83 bf       	out	0x33, r24	; 51
     294:	81 e0       	ldi	r24, 0x01	; 1
     296:	0e 94 e0 0f 	call	0x1fc0	; 0x1fc0 <detachInterrupt>
     29a:	10 92 50 01 	sts	0x0150, r1	; 0x800150 <modeWork>
     29e:	10 92 4f 01 	sts	0x014F, r1	; 0x80014f <tubeMode>
     2a2:	0e 94 8a 10 	call	0x2114	; 0x2114 <millis>
     2a6:	60 93 54 01 	sts	0x0154, r22	; 0x800154 <tubeModeStamp>
     2aa:	70 93 55 01 	sts	0x0155, r23	; 0x800155 <tubeModeStamp+0x1>
     2ae:	80 93 56 01 	sts	0x0156, r24	; 0x800156 <tubeModeStamp+0x2>
     2b2:	90 93 57 01 	sts	0x0157, r25	; 0x800157 <tubeModeStamp+0x3>
     2b6:	0c 94 5d 01 	jmp	0x2ba	; 0x2ba <_Z11buttonClickv>

000002ba <_Z11buttonClickv>:
     2ba:	80 91 50 01 	lds	r24, 0x0150	; 0x800150 <modeWork>
     2be:	81 11       	cpse	r24, r1
     2c0:	14 c0       	rjmp	.+40     	; 0x2ea <_Z11buttonClickv+0x30>
     2c2:	80 91 4f 01 	lds	r24, 0x014F	; 0x80014f <tubeMode>
     2c6:	85 30       	cpi	r24, 0x05	; 5
     2c8:	11 f4       	brne	.+4      	; 0x2ce <_Z11buttonClickv+0x14>
     2ca:	0c 94 38 01 	jmp	0x270	; 0x270 <_Z9sleepModev>
     2ce:	8f 5f       	subi	r24, 0xFF	; 255
     2d0:	80 93 4f 01 	sts	0x014F, r24	; 0x80014f <tubeMode>
     2d4:	0e 94 8a 10 	call	0x2114	; 0x2114 <millis>
     2d8:	60 93 54 01 	sts	0x0154, r22	; 0x800154 <tubeModeStamp>
     2dc:	70 93 55 01 	sts	0x0155, r23	; 0x800155 <tubeModeStamp+0x1>
     2e0:	80 93 56 01 	sts	0x0156, r24	; 0x800156 <tubeModeStamp+0x2>
     2e4:	90 93 57 01 	sts	0x0157, r25	; 0x800157 <tubeModeStamp+0x3>
     2e8:	08 95       	ret
     2ea:	80 91 a2 01 	lds	r24, 0x01A2	; 0x8001a2 <dateTime>
     2ee:	80 93 52 01 	sts	0x0152, r24	; 0x800152 <prevSec>
     2f2:	8a e0       	ldi	r24, 0x0A	; 10
     2f4:	80 93 53 01 	sts	0x0153, r24	; 0x800153 <returnTime>
     2f8:	80 91 58 01 	lds	r24, 0x0158	; 0x800158 <editValue>
     2fc:	90 91 59 01 	lds	r25, 0x0159	; 0x800159 <editValue+0x1>
     300:	01 96       	adiw	r24, 0x01	; 1
     302:	90 93 59 01 	sts	0x0159, r25	; 0x800159 <editValue+0x1>
     306:	80 93 58 01 	sts	0x0158, r24	; 0x800158 <editValue>
     30a:	20 91 5a 01 	lds	r18, 0x015A	; 0x80015a <editValue+0x2>
     30e:	30 e0       	ldi	r19, 0x00	; 0
     310:	28 17       	cp	r18, r24
     312:	39 07       	cpc	r19, r25
     314:	3c f4       	brge	.+14     	; 0x324 <_Z11buttonClickv+0x6a>
     316:	80 91 5b 01 	lds	r24, 0x015B	; 0x80015b <editValue+0x3>
     31a:	90 e0       	ldi	r25, 0x00	; 0
     31c:	90 93 59 01 	sts	0x0159, r25	; 0x800159 <editValue+0x1>
     320:	80 93 58 01 	sts	0x0158, r24	; 0x800158 <editValue>
     324:	08 95       	ret

00000326 <_Z13resetTubeModev>:
     326:	0f 93       	push	r16
     328:	1f 93       	push	r17
     32a:	80 91 50 01 	lds	r24, 0x0150	; 0x800150 <modeWork>
     32e:	81 11       	cpse	r24, r1
     330:	1d c0       	rjmp	.+58     	; 0x36c <_Z13resetTubeModev+0x46>
     332:	80 91 4f 01 	lds	r24, 0x014F	; 0x80014f <tubeMode>
     336:	85 30       	cpi	r24, 0x05	; 5
     338:	c9 f0       	breq	.+50     	; 0x36c <_Z13resetTubeModev+0x46>
     33a:	0e 94 8a 10 	call	0x2114	; 0x2114 <millis>
     33e:	00 91 54 01 	lds	r16, 0x0154	; 0x800154 <tubeModeStamp>
     342:	10 91 55 01 	lds	r17, 0x0155	; 0x800155 <tubeModeStamp+0x1>
     346:	20 91 56 01 	lds	r18, 0x0156	; 0x800156 <tubeModeStamp+0x2>
     34a:	30 91 57 01 	lds	r19, 0x0157	; 0x800157 <tubeModeStamp+0x3>
     34e:	dc 01       	movw	r26, r24
     350:	cb 01       	movw	r24, r22
     352:	80 1b       	sub	r24, r16
     354:	91 0b       	sbc	r25, r17
     356:	a2 0b       	sbc	r26, r18
     358:	b3 0b       	sbc	r27, r19
     35a:	88 3b       	cpi	r24, 0xB8	; 184
     35c:	9b 40       	sbci	r25, 0x0B	; 11
     35e:	a1 05       	cpc	r26, r1
     360:	b1 05       	cpc	r27, r1
     362:	20 f0       	brcs	.+8      	; 0x36c <_Z13resetTubeModev+0x46>
     364:	1f 91       	pop	r17
     366:	0f 91       	pop	r16
     368:	0c 94 38 01 	jmp	0x270	; 0x270 <_Z9sleepModev>
     36c:	1f 91       	pop	r17
     36e:	0f 91       	pop	r16
     370:	08 95       	ret

00000372 <_Z13getAutoBrightb>:
     372:	81 11       	cpse	r24, r1
     374:	04 c0       	rjmp	.+8      	; 0x37e <_Z13getAutoBrightb+0xc>
     376:	80 91 78 01 	lds	r24, 0x0178	; 0x800178 <bright>
     37a:	81 11       	cpse	r24, r1
     37c:	23 c0       	rjmp	.+70     	; 0x3c4 <_Z13getAutoBrightb+0x52>
     37e:	80 e1       	ldi	r24, 0x10	; 16
     380:	0e 94 dc 10 	call	0x21b8	; 0x21b8 <analogRead>
     384:	bc 01       	movw	r22, r24
     386:	99 0f       	add	r25, r25
     388:	88 0b       	sbc	r24, r24
     38a:	99 0b       	sbc	r25, r25
     38c:	0e 94 b4 0e 	call	0x1d68	; 0x1d68 <__floatsisf>
     390:	2c ee       	ldi	r18, 0xEC	; 236
     392:	31 e5       	ldi	r19, 0x51	; 81
     394:	48 e9       	ldi	r20, 0x98	; 152
     396:	50 e4       	ldi	r21, 0x40	; 64
     398:	0e 94 18 0f 	call	0x1e30	; 0x1e30 <__mulsf3>
     39c:	0e 94 7c 0e 	call	0x1cf8	; 0x1cf8 <__fixsfsi>
     3a0:	61 3d       	cpi	r22, 0xD1	; 209
     3a2:	27 e0       	ldi	r18, 0x07	; 7
     3a4:	72 07       	cpc	r23, r18
     3a6:	44 f4       	brge	.+16     	; 0x3b8 <_Z13getAutoBrightb+0x46>
     3a8:	20 ed       	ldi	r18, 0xD0	; 208
     3aa:	37 e0       	ldi	r19, 0x07	; 7
     3ac:	c9 01       	movw	r24, r18
     3ae:	86 1b       	sub	r24, r22
     3b0:	97 0b       	sbc	r25, r23
     3b2:	82 33       	cpi	r24, 0x32	; 50
     3b4:	91 05       	cpc	r25, r1
     3b6:	14 f4       	brge	.+4      	; 0x3bc <_Z13getAutoBrightb+0x4a>
     3b8:	82 e3       	ldi	r24, 0x32	; 50
     3ba:	90 e0       	ldi	r25, 0x00	; 0
     3bc:	90 93 7a 01 	sts	0x017A, r25	; 0x80017a <bright+0x2>
     3c0:	80 93 79 01 	sts	0x0179, r24	; 0x800179 <bright+0x1>
     3c4:	08 95       	ret

000003c6 <_Z17setBrightDurationh>:
     3c6:	81 30       	cpi	r24, 0x01	; 1
     3c8:	49 f0       	breq	.+18     	; 0x3dc <_Z17setBrightDurationh+0x16>
     3ca:	28 f0       	brcs	.+10     	; 0x3d6 <_Z17setBrightDurationh+0x10>
     3cc:	82 30       	cpi	r24, 0x02	; 2
     3ce:	49 f0       	breq	.+18     	; 0x3e2 <_Z17setBrightDurationh+0x1c>
     3d0:	83 30       	cpi	r24, 0x03	; 3
     3d2:	51 f0       	breq	.+20     	; 0x3e8 <_Z17setBrightDurationh+0x22>
     3d4:	08 95       	ret
     3d6:	81 e0       	ldi	r24, 0x01	; 1
     3d8:	0c 94 b9 01 	jmp	0x372	; 0x372 <_Z13getAutoBrightb>
     3dc:	82 e3       	ldi	r24, 0x32	; 50
     3de:	90 e0       	ldi	r25, 0x00	; 0
     3e0:	05 c0       	rjmp	.+10     	; 0x3ec <_Z17setBrightDurationh+0x26>
     3e2:	88 ec       	ldi	r24, 0xC8	; 200
     3e4:	90 e0       	ldi	r25, 0x00	; 0
     3e6:	02 c0       	rjmp	.+4      	; 0x3ec <_Z17setBrightDurationh+0x26>
     3e8:	80 ed       	ldi	r24, 0xD0	; 208
     3ea:	97 e0       	ldi	r25, 0x07	; 7
     3ec:	90 93 7a 01 	sts	0x017A, r25	; 0x80017a <bright+0x2>
     3f0:	80 93 79 01 	sts	0x0179, r24	; 0x800179 <bright+0x1>
     3f4:	08 95       	ret

000003f6 <_Z10tubeAsModev>:
     3f6:	8f 92       	push	r8
     3f8:	9f 92       	push	r9
     3fa:	af 92       	push	r10
     3fc:	bf 92       	push	r11
     3fe:	df 92       	push	r13
     400:	ef 92       	push	r14
     402:	ff 92       	push	r15
     404:	0f 93       	push	r16
     406:	1f 93       	push	r17
     408:	cf 93       	push	r28
     40a:	df 93       	push	r29
     40c:	e0 91 4f 01 	lds	r30, 0x014F	; 0x80014f <tubeMode>
     410:	8e 2f       	mov	r24, r30
     412:	90 e0       	ldi	r25, 0x00	; 0
     414:	8d 30       	cpi	r24, 0x0D	; 13
     416:	91 05       	cpc	r25, r1
     418:	08 f0       	brcs	.+2      	; 0x41c <__LOCK_REGION_LENGTH__+0x1c>
     41a:	b9 c0       	rjmp	.+370    	; 0x58e <__LOCK_REGION_LENGTH__+0x18e>
     41c:	fc 01       	movw	r30, r24
     41e:	ec 5c       	subi	r30, 0xCC	; 204
     420:	ff 4f       	sbci	r31, 0xFF	; 255
     422:	0c 94 ea 11 	jmp	0x23d4	; 0x23d4 <__tablejump2__>
     426:	80 91 50 01 	lds	r24, 0x0150	; 0x800150 <modeWork>
     42a:	81 30       	cpi	r24, 0x01	; 1
     42c:	19 f4       	brne	.+6      	; 0x434 <__LOCK_REGION_LENGTH__+0x34>
     42e:	60 91 58 01 	lds	r22, 0x0158	; 0x800158 <editValue>
     432:	02 c0       	rjmp	.+4      	; 0x438 <__LOCK_REGION_LENGTH__+0x38>
     434:	60 91 a4 01 	lds	r22, 0x01A4	; 0x8001a4 <dateTime+0x2>
     438:	80 e0       	ldi	r24, 0x00	; 0
     43a:	0e 94 e3 00 	call	0x1c6	; 0x1c6 <_Z17fillTubeDigitSymbhh>
     43e:	80 91 50 01 	lds	r24, 0x0150	; 0x800150 <modeWork>
     442:	82 30       	cpi	r24, 0x02	; 2
     444:	09 f4       	brne	.+2      	; 0x448 <__LOCK_REGION_LENGTH__+0x48>
     446:	83 c0       	rjmp	.+262    	; 0x54e <__LOCK_REGION_LENGTH__+0x14e>
     448:	60 91 a3 01 	lds	r22, 0x01A3	; 0x8001a3 <dateTime+0x1>
     44c:	15 c0       	rjmp	.+42     	; 0x478 <__LOCK_REGION_LENGTH__+0x78>
     44e:	80 91 07 01 	lds	r24, 0x0107	; 0x800107 <specSymb+0x1>
     452:	80 93 64 01 	sts	0x0164, r24	; 0x800164 <tube>
     456:	80 91 06 01 	lds	r24, 0x0106	; 0x800106 <specSymb>
     45a:	93 c0       	rjmp	.+294    	; 0x582 <__LOCK_REGION_LENGTH__+0x182>
     45c:	80 91 0a 01 	lds	r24, 0x010A	; 0x80010a <specSymb+0x4>
     460:	80 93 64 01 	sts	0x0164, r24	; 0x800164 <tube>
     464:	0e 94 0d 01 	call	0x21a	; 0x21a <_Z19fillTubeTemperaturev>
     468:	92 c0       	rjmp	.+292    	; 0x58e <__LOCK_REGION_LENGTH__+0x18e>
     46a:	60 91 a3 01 	lds	r22, 0x01A3	; 0x8001a3 <dateTime+0x1>
     46e:	80 e0       	ldi	r24, 0x00	; 0
     470:	0e 94 e3 00 	call	0x1c6	; 0x1c6 <_Z17fillTubeDigitSymbhh>
     474:	60 91 a2 01 	lds	r22, 0x01A2	; 0x8001a2 <dateTime>
     478:	82 e0       	ldi	r24, 0x02	; 2
     47a:	0e 94 e3 00 	call	0x1c6	; 0x1c6 <_Z17fillTubeDigitSymbhh>
     47e:	87 c0       	rjmp	.+270    	; 0x58e <__LOCK_REGION_LENGTH__+0x18e>
     480:	80 91 0c 01 	lds	r24, 0x010C	; 0x80010c <specSymb+0x6>
     484:	80 93 64 01 	sts	0x0164, r24	; 0x800164 <tube>
     488:	80 91 06 01 	lds	r24, 0x0106	; 0x800106 <specSymb>
     48c:	80 93 65 01 	sts	0x0165, r24	; 0x800165 <tube+0x1>
     490:	80 93 66 01 	sts	0x0166, r24	; 0x800166 <tube+0x2>
     494:	80 91 58 01 	lds	r24, 0x0158	; 0x800158 <editValue>
     498:	90 91 59 01 	lds	r25, 0x0159	; 0x800159 <editValue+0x1>
     49c:	fc 01       	movw	r30, r24
     49e:	e2 5f       	subi	r30, 0xF2	; 242
     4a0:	fe 4f       	sbci	r31, 0xFE	; 254
     4a2:	90 81       	ld	r25, Z
     4a4:	90 93 67 01 	sts	0x0167, r25	; 0x800167 <tube+0x3>
     4a8:	0e 94 e3 01 	call	0x3c6	; 0x3c6 <_Z17setBrightDurationh>
     4ac:	70 c0       	rjmp	.+224    	; 0x58e <__LOCK_REGION_LENGTH__+0x18e>
     4ae:	80 91 0b 01 	lds	r24, 0x010B	; 0x80010b <specSymb+0x5>
     4b2:	80 93 64 01 	sts	0x0164, r24	; 0x800164 <tube>
     4b6:	80 91 07 01 	lds	r24, 0x0107	; 0x800107 <specSymb+0x1>
     4ba:	24 c0       	rjmp	.+72     	; 0x504 <__LOCK_REGION_LENGTH__+0x104>
     4bc:	80 91 50 01 	lds	r24, 0x0150	; 0x800150 <modeWork>
     4c0:	85 30       	cpi	r24, 0x05	; 5
     4c2:	19 f4       	brne	.+6      	; 0x4ca <__LOCK_REGION_LENGTH__+0xca>
     4c4:	60 91 58 01 	lds	r22, 0x0158	; 0x800158 <editValue>
     4c8:	02 c0       	rjmp	.+4      	; 0x4ce <__LOCK_REGION_LENGTH__+0xce>
     4ca:	60 91 60 01 	lds	r22, 0x0160	; 0x800160 <alarmClock+0x1>
     4ce:	80 e0       	ldi	r24, 0x00	; 0
     4d0:	0e 94 e3 00 	call	0x1c6	; 0x1c6 <_Z17fillTubeDigitSymbhh>
     4d4:	80 91 50 01 	lds	r24, 0x0150	; 0x800150 <modeWork>
     4d8:	86 30       	cpi	r24, 0x06	; 6
     4da:	c9 f1       	breq	.+114    	; 0x54e <__LOCK_REGION_LENGTH__+0x14e>
     4dc:	60 91 61 01 	lds	r22, 0x0161	; 0x800161 <alarmClock+0x2>
     4e0:	cb cf       	rjmp	.-106    	; 0x478 <__LOCK_REGION_LENGTH__+0x78>
     4e2:	80 91 08 01 	lds	r24, 0x0108	; 0x800108 <specSymb+0x2>
     4e6:	80 93 64 01 	sts	0x0164, r24	; 0x800164 <tube>
     4ea:	e0 91 62 01 	lds	r30, 0x0162	; 0x800162 <alarmClock+0x3>
     4ee:	f0 e0       	ldi	r31, 0x00	; 0
     4f0:	e2 5f       	subi	r30, 0xF2	; 242
     4f2:	fe 4f       	sbci	r31, 0xFE	; 254
     4f4:	81 81       	ldd	r24, Z+1	; 0x01
     4f6:	06 c0       	rjmp	.+12     	; 0x504 <__LOCK_REGION_LENGTH__+0x104>
     4f8:	80 91 0b 01 	lds	r24, 0x010B	; 0x80010b <specSymb+0x5>
     4fc:	80 93 64 01 	sts	0x0164, r24	; 0x800164 <tube>
     500:	80 91 12 01 	lds	r24, 0x0112	; 0x800112 <digitSymb+0x4>
     504:	80 93 65 01 	sts	0x0165, r24	; 0x800165 <tube+0x1>
     508:	80 91 06 01 	lds	r24, 0x0106	; 0x800106 <specSymb>
     50c:	80 93 66 01 	sts	0x0166, r24	; 0x800166 <tube+0x2>
     510:	e0 91 58 01 	lds	r30, 0x0158	; 0x800158 <editValue>
     514:	f0 91 59 01 	lds	r31, 0x0159	; 0x800159 <editValue+0x1>
     518:	e2 5f       	subi	r30, 0xF2	; 242
     51a:	fe 4f       	sbci	r31, 0xFE	; 254
     51c:	80 81       	ld	r24, Z
     51e:	35 c0       	rjmp	.+106    	; 0x58a <__LOCK_REGION_LENGTH__+0x18a>
     520:	80 91 50 01 	lds	r24, 0x0150	; 0x800150 <modeWork>
     524:	89 30       	cpi	r24, 0x09	; 9
     526:	19 f4       	brne	.+6      	; 0x52e <__LOCK_REGION_LENGTH__+0x12e>
     528:	60 91 58 01 	lds	r22, 0x0158	; 0x800158 <editValue>
     52c:	02 c0       	rjmp	.+4      	; 0x532 <__LOCK_REGION_LENGTH__+0x132>
     52e:	60 91 5d 01 	lds	r22, 0x015D	; 0x80015d <hourBeep+0x1>
     532:	80 e0       	ldi	r24, 0x00	; 0
     534:	0e 94 e3 00 	call	0x1c6	; 0x1c6 <_Z17fillTubeDigitSymbhh>
     538:	80 91 50 01 	lds	r24, 0x0150	; 0x800150 <modeWork>
     53c:	8a 30       	cpi	r24, 0x0A	; 10
     53e:	39 f0       	breq	.+14     	; 0x54e <__LOCK_REGION_LENGTH__+0x14e>
     540:	60 91 5e 01 	lds	r22, 0x015E	; 0x80015e <hourBeep+0x2>
     544:	99 cf       	rjmp	.-206    	; 0x478 <__LOCK_REGION_LENGTH__+0x78>
     546:	64 e1       	ldi	r22, 0x14	; 20
     548:	80 e0       	ldi	r24, 0x00	; 0
     54a:	0e 94 e3 00 	call	0x1c6	; 0x1c6 <_Z17fillTubeDigitSymbhh>
     54e:	60 91 58 01 	lds	r22, 0x0158	; 0x800158 <editValue>
     552:	92 cf       	rjmp	.-220    	; 0x478 <__LOCK_REGION_LENGTH__+0x78>
     554:	80 91 50 01 	lds	r24, 0x0150	; 0x800150 <modeWork>
     558:	8d 30       	cpi	r24, 0x0D	; 13
     55a:	19 f4       	brne	.+6      	; 0x562 <__LOCK_REGION_LENGTH__+0x162>
     55c:	60 91 58 01 	lds	r22, 0x0158	; 0x800158 <editValue>
     560:	02 c0       	rjmp	.+4      	; 0x566 <__LOCK_REGION_LENGTH__+0x166>
     562:	60 91 a6 01 	lds	r22, 0x01A6	; 0x8001a6 <dateTime+0x4>
     566:	80 e0       	ldi	r24, 0x00	; 0
     568:	0e 94 e3 00 	call	0x1c6	; 0x1c6 <_Z17fillTubeDigitSymbhh>
     56c:	80 91 50 01 	lds	r24, 0x0150	; 0x800150 <modeWork>
     570:	8c 30       	cpi	r24, 0x0C	; 12
     572:	69 f3       	breq	.-38     	; 0x54e <__LOCK_REGION_LENGTH__+0x14e>
     574:	60 91 a7 01 	lds	r22, 0x01A7	; 0x8001a7 <dateTime+0x5>
     578:	7f cf       	rjmp	.-258    	; 0x478 <__LOCK_REGION_LENGTH__+0x78>
     57a:	80 91 06 01 	lds	r24, 0x0106	; 0x800106 <specSymb>
     57e:	80 93 64 01 	sts	0x0164, r24	; 0x800164 <tube>
     582:	80 93 65 01 	sts	0x0165, r24	; 0x800165 <tube+0x1>
     586:	80 93 66 01 	sts	0x0166, r24	; 0x800166 <tube+0x2>
     58a:	80 93 67 01 	sts	0x0167, r24	; 0x800167 <tube+0x3>
     58e:	80 91 50 01 	lds	r24, 0x0150	; 0x800150 <modeWork>
     592:	83 30       	cpi	r24, 0x03	; 3
     594:	19 f0       	breq	.+6      	; 0x59c <__LOCK_REGION_LENGTH__+0x19c>
     596:	80 e0       	ldi	r24, 0x00	; 0
     598:	0e 94 b9 01 	call	0x372	; 0x372 <_Z13getAutoBrightb>
     59c:	80 91 51 01 	lds	r24, 0x0151	; 0x800151 <currentRank>
     5a0:	83 30       	cpi	r24, 0x03	; 3
     5a2:	11 f0       	breq	.+4      	; 0x5a8 <__LOCK_REGION_LENGTH__+0x1a8>
     5a4:	8f 5f       	subi	r24, 0xFF	; 255
     5a6:	01 c0       	rjmp	.+2      	; 0x5aa <__LOCK_REGION_LENGTH__+0x1aa>
     5a8:	80 e0       	ldi	r24, 0x00	; 0
     5aa:	80 93 51 01 	sts	0x0151, r24	; 0x800151 <currentRank>
     5ae:	cc e1       	ldi	r28, 0x1C	; 28
     5b0:	d1 e0       	ldi	r29, 0x01	; 1
     5b2:	8e 01       	movw	r16, r28
     5b4:	e1 2c       	mov	r14, r1
     5b6:	f1 2c       	mov	r15, r1
     5b8:	e0 91 51 01 	lds	r30, 0x0151	; 0x800151 <currentRank>
     5bc:	f0 e0       	ldi	r31, 0x00	; 0
     5be:	ec 59       	subi	r30, 0x9C	; 156
     5c0:	fe 4f       	sbci	r31, 0xFE	; 254
     5c2:	60 81       	ld	r22, Z
     5c4:	70 e0       	ldi	r23, 0x00	; 0
     5c6:	0e 2c       	mov	r0, r14
     5c8:	02 c0       	rjmp	.+4      	; 0x5ce <__LOCK_REGION_LENGTH__+0x1ce>
     5ca:	75 95       	asr	r23
     5cc:	67 95       	ror	r22
     5ce:	0a 94       	dec	r0
     5d0:	e2 f7       	brpl	.-8      	; 0x5ca <__LOCK_REGION_LENGTH__+0x1ca>
     5d2:	61 70       	andi	r22, 0x01	; 1
     5d4:	f8 01       	movw	r30, r16
     5d6:	81 91       	ld	r24, Z+
     5d8:	8f 01       	movw	r16, r30
     5da:	0e 94 5e 11 	call	0x22bc	; 0x22bc <digitalWrite>
     5de:	ff ef       	ldi	r31, 0xFF	; 255
     5e0:	ef 1a       	sub	r14, r31
     5e2:	ff 0a       	sbc	r15, r31
     5e4:	28 e0       	ldi	r18, 0x08	; 8
     5e6:	e2 16       	cp	r14, r18
     5e8:	f1 04       	cpc	r15, r1
     5ea:	31 f7       	brne	.-52     	; 0x5b8 <__LOCK_REGION_LENGTH__+0x1b8>
     5ec:	80 91 4f 01 	lds	r24, 0x014F	; 0x80014f <tubeMode>
     5f0:	8b 7f       	andi	r24, 0xFB	; 251
     5f2:	81 30       	cpi	r24, 0x01	; 1
     5f4:	59 f4       	brne	.+22     	; 0x60c <__LOCK_REGION_LENGTH__+0x20c>
     5f6:	80 91 51 01 	lds	r24, 0x0151	; 0x800151 <currentRank>
     5fa:	81 30       	cpi	r24, 0x01	; 1
     5fc:	39 f4       	brne	.+14     	; 0x60c <__LOCK_REGION_LENGTH__+0x20c>
     5fe:	60 91 a2 01 	lds	r22, 0x01A2	; 0x8001a2 <dateTime>
     602:	61 70       	andi	r22, 0x01	; 1
     604:	80 91 23 01 	lds	r24, 0x0123	; 0x800123 <pinsD+0x7>
     608:	0e 94 5e 11 	call	0x22bc	; 0x22bc <digitalWrite>
     60c:	80 91 4f 01 	lds	r24, 0x014F	; 0x80014f <tubeMode>
     610:	83 30       	cpi	r24, 0x03	; 3
     612:	49 f4       	brne	.+18     	; 0x626 <__LOCK_REGION_LENGTH__+0x226>
     614:	80 91 51 01 	lds	r24, 0x0151	; 0x800151 <currentRank>
     618:	82 30       	cpi	r24, 0x02	; 2
     61a:	29 f4       	brne	.+10     	; 0x626 <__LOCK_REGION_LENGTH__+0x226>
     61c:	61 e0       	ldi	r22, 0x01	; 1
     61e:	80 91 23 01 	lds	r24, 0x0123	; 0x800123 <pinsD+0x7>
     622:	0e 94 5e 11 	call	0x22bc	; 0x22bc <digitalWrite>
     626:	80 91 50 01 	lds	r24, 0x0150	; 0x800150 <modeWork>
     62a:	81 11       	cpse	r24, r1
     62c:	11 c0       	rjmp	.+34     	; 0x650 <__LOCK_REGION_LENGTH__+0x250>
     62e:	80 91 51 01 	lds	r24, 0x0151	; 0x800151 <currentRank>
     632:	90 e0       	ldi	r25, 0x00	; 0
     634:	fc 01       	movw	r30, r24
     636:	ec 59       	subi	r30, 0x9C	; 156
     638:	fe 4f       	sbci	r31, 0xFE	; 254
     63a:	20 85       	ldd	r18, Z+8	; 0x08
     63c:	21 11       	cpse	r18, r1
     63e:	52 c0       	rjmp	.+164    	; 0x6e4 <__LOCK_REGION_LENGTH__+0x2e4>
     640:	fc 01       	movw	r30, r24
     642:	e8 5e       	subi	r30, 0xE8	; 232
     644:	fe 4f       	sbci	r31, 0xFE	; 254
     646:	60 e0       	ldi	r22, 0x00	; 0
     648:	80 81       	ld	r24, Z
     64a:	0e 94 5e 11 	call	0x22bc	; 0x22bc <digitalWrite>
     64e:	4a c0       	rjmp	.+148    	; 0x6e4 <__LOCK_REGION_LENGTH__+0x2e4>
     650:	08 e6       	ldi	r16, 0x68	; 104
     652:	11 e0       	ldi	r17, 0x01	; 1
     654:	8c e6       	ldi	r24, 0x6C	; 108
     656:	e8 2e       	mov	r14, r24
     658:	81 e0       	ldi	r24, 0x01	; 1
     65a:	f8 2e       	mov	r15, r24
     65c:	dd 24       	eor	r13, r13
     65e:	d3 94       	inc	r13
     660:	f8 01       	movw	r30, r16
     662:	81 91       	ld	r24, Z+
     664:	8f 01       	movw	r16, r30
     666:	88 23       	and	r24, r24
     668:	b9 f1       	breq	.+110    	; 0x6d8 <__LOCK_REGION_LENGTH__+0x2d8>
     66a:	0e 94 8a 10 	call	0x2114	; 0x2114 <millis>
     66e:	80 90 74 01 	lds	r8, 0x0174	; 0x800174 <tube+0x10>
     672:	90 90 75 01 	lds	r9, 0x0175	; 0x800175 <tube+0x11>
     676:	a0 90 76 01 	lds	r10, 0x0176	; 0x800176 <tube+0x12>
     67a:	b0 90 77 01 	lds	r11, 0x0177	; 0x800177 <tube+0x13>
     67e:	dc 01       	movw	r26, r24
     680:	cb 01       	movw	r24, r22
     682:	88 19       	sub	r24, r8
     684:	99 09       	sbc	r25, r9
     686:	aa 09       	sbc	r26, r10
     688:	bb 09       	sbc	r27, r11
     68a:	f8 01       	movw	r30, r16
     68c:	86 39       	cpi	r24, 0x96	; 150
     68e:	91 05       	cpc	r25, r1
     690:	a1 05       	cpc	r26, r1
     692:	b1 05       	cpc	r27, r1
     694:	08 f1       	brcs	.+66     	; 0x6d8 <__LOCK_REGION_LENGTH__+0x2d8>
     696:	d3 82       	std	Z+3, r13	; 0x03
     698:	0e 94 8a 10 	call	0x2114	; 0x2114 <millis>
     69c:	80 90 74 01 	lds	r8, 0x0174	; 0x800174 <tube+0x10>
     6a0:	90 90 75 01 	lds	r9, 0x0175	; 0x800175 <tube+0x11>
     6a4:	a0 90 76 01 	lds	r10, 0x0176	; 0x800176 <tube+0x12>
     6a8:	b0 90 77 01 	lds	r11, 0x0177	; 0x800177 <tube+0x13>
     6ac:	dc 01       	movw	r26, r24
     6ae:	cb 01       	movw	r24, r22
     6b0:	88 19       	sub	r24, r8
     6b2:	99 09       	sbc	r25, r9
     6b4:	aa 09       	sbc	r26, r10
     6b6:	bb 09       	sbc	r27, r11
     6b8:	86 32       	cpi	r24, 0x26	; 38
     6ba:	92 40       	sbci	r25, 0x02	; 2
     6bc:	a1 05       	cpc	r26, r1
     6be:	b1 05       	cpc	r27, r1
     6c0:	60 f0       	brcs	.+24     	; 0x6da <__LOCK_REGION_LENGTH__+0x2da>
     6c2:	0e 94 8a 10 	call	0x2114	; 0x2114 <millis>
     6c6:	60 93 74 01 	sts	0x0174, r22	; 0x800174 <tube+0x10>
     6ca:	70 93 75 01 	sts	0x0175, r23	; 0x800175 <tube+0x11>
     6ce:	80 93 76 01 	sts	0x0176, r24	; 0x800176 <tube+0x12>
     6d2:	90 93 77 01 	sts	0x0177, r25	; 0x800177 <tube+0x13>
     6d6:	01 c0       	rjmp	.+2      	; 0x6da <__LOCK_REGION_LENGTH__+0x2da>
     6d8:	13 82       	std	Z+3, r1	; 0x03
     6da:	e0 16       	cp	r14, r16
     6dc:	f1 06       	cpc	r15, r17
     6de:	09 f0       	breq	.+2      	; 0x6e2 <__LOCK_REGION_LENGTH__+0x2e2>
     6e0:	bf cf       	rjmp	.-130    	; 0x660 <__LOCK_REGION_LENGTH__+0x260>
     6e2:	a5 cf       	rjmp	.-182    	; 0x62e <__LOCK_REGION_LENGTH__+0x22e>
     6e4:	80 91 79 01 	lds	r24, 0x0179	; 0x800179 <bright+0x1>
     6e8:	90 91 7a 01 	lds	r25, 0x017A	; 0x80017a <bright+0x2>
     6ec:	0e 94 96 10 	call	0x212c	; 0x212c <delayMicroseconds>
     6f0:	e0 91 51 01 	lds	r30, 0x0151	; 0x800151 <currentRank>
     6f4:	f0 e0       	ldi	r31, 0x00	; 0
     6f6:	e8 5e       	subi	r30, 0xE8	; 232
     6f8:	fe 4f       	sbci	r31, 0xFE	; 254
     6fa:	61 e0       	ldi	r22, 0x01	; 1
     6fc:	80 81       	ld	r24, Z
     6fe:	0e 94 5e 11 	call	0x22bc	; 0x22bc <digitalWrite>
     702:	04 e2       	ldi	r16, 0x24	; 36
     704:	11 e0       	ldi	r17, 0x01	; 1
     706:	60 e0       	ldi	r22, 0x00	; 0
     708:	89 91       	ld	r24, Y+
     70a:	0e 94 5e 11 	call	0x22bc	; 0x22bc <digitalWrite>
     70e:	0c 17       	cp	r16, r28
     710:	1d 07       	cpc	r17, r29
     712:	c9 f7       	brne	.-14     	; 0x706 <__LOCK_REGION_LENGTH__+0x306>
     714:	80 eb       	ldi	r24, 0xB0	; 176
     716:	94 e0       	ldi	r25, 0x04	; 4
     718:	df 91       	pop	r29
     71a:	cf 91       	pop	r28
     71c:	1f 91       	pop	r17
     71e:	0f 91       	pop	r16
     720:	ff 90       	pop	r15
     722:	ef 90       	pop	r14
     724:	df 90       	pop	r13
     726:	bf 90       	pop	r11
     728:	af 90       	pop	r10
     72a:	9f 90       	pop	r9
     72c:	8f 90       	pop	r8
     72e:	0c 94 96 10 	jmp	0x212c	; 0x212c <delayMicroseconds>

00000732 <_Z15getMaxMounthDayv>:
     732:	80 91 a7 01 	lds	r24, 0x01A7	; 0x8001a7 <dateTime+0x5>
     736:	82 30       	cpi	r24, 0x02	; 2
     738:	31 f4       	brne	.+12     	; 0x746 <_Z15getMaxMounthDayv+0x14>
     73a:	80 91 a8 01 	lds	r24, 0x01A8	; 0x8001a8 <dateTime+0x6>
     73e:	83 70       	andi	r24, 0x03	; 3
     740:	69 f0       	breq	.+26     	; 0x75c <_Z15getMaxMounthDayv+0x2a>
     742:	8c e1       	ldi	r24, 0x1C	; 28
     744:	08 95       	ret
     746:	98 2f       	mov	r25, r24
     748:	91 70       	andi	r25, 0x01	; 1
     74a:	88 30       	cpi	r24, 0x08	; 8
     74c:	18 f4       	brcc	.+6      	; 0x754 <_Z15getMaxMounthDayv+0x22>
     74e:	91 11       	cpse	r25, r1
     750:	07 c0       	rjmp	.+14     	; 0x760 <_Z15getMaxMounthDayv+0x2e>
     752:	02 c0       	rjmp	.+4      	; 0x758 <_Z15getMaxMounthDayv+0x26>
     754:	99 23       	and	r25, r25
     756:	21 f0       	breq	.+8      	; 0x760 <_Z15getMaxMounthDayv+0x2e>
     758:	8e e1       	ldi	r24, 0x1E	; 30
     75a:	08 95       	ret
     75c:	8d e1       	ldi	r24, 0x1D	; 29
     75e:	08 95       	ret
     760:	8f e1       	ldi	r24, 0x1F	; 31
     762:	08 95       	ret

00000764 <_Z15assignEditDigitv>:
     764:	0e 94 d8 00 	call	0x1b0	; 0x1b0 <_Z14resetTubeFlashv>
     768:	e0 91 50 01 	lds	r30, 0x0150	; 0x800150 <modeWork>
     76c:	8e 2f       	mov	r24, r30
     76e:	90 e0       	ldi	r25, 0x00	; 0
     770:	fc 01       	movw	r30, r24
     772:	31 97       	sbiw	r30, 0x01	; 1
     774:	ed 30       	cpi	r30, 0x0D	; 13
     776:	f1 05       	cpc	r31, r1
     778:	08 f0       	brcs	.+2      	; 0x77c <_Z15assignEditDigitv+0x18>
     77a:	ea c0       	rjmp	.+468    	; 0x950 <__stack+0x51>
     77c:	ef 5b       	subi	r30, 0xBF	; 191
     77e:	ff 4f       	sbci	r31, 0xFF	; 255
     780:	0c 94 ea 11 	jmp	0x23d4	; 0x23d4 <__tablejump2__>
     784:	80 91 a4 01 	lds	r24, 0x01A4	; 0x8001a4 <dateTime+0x2>
     788:	90 e0       	ldi	r25, 0x00	; 0
     78a:	90 93 59 01 	sts	0x0159, r25	; 0x800159 <editValue+0x1>
     78e:	80 93 58 01 	sts	0x0158, r24	; 0x800158 <editValue>
     792:	10 92 5b 01 	sts	0x015B, r1	; 0x80015b <editValue+0x3>
     796:	87 e1       	ldi	r24, 0x17	; 23
     798:	80 93 5a 01 	sts	0x015A, r24	; 0x80015a <editValue+0x2>
     79c:	81 e0       	ldi	r24, 0x01	; 1
     79e:	80 93 4f 01 	sts	0x014F, r24	; 0x80014f <tubeMode>
     7a2:	3f c0       	rjmp	.+126    	; 0x822 <_Z15assignEditDigitv+0xbe>
     7a4:	80 91 a3 01 	lds	r24, 0x01A3	; 0x8001a3 <dateTime+0x1>
     7a8:	90 e0       	ldi	r25, 0x00	; 0
     7aa:	90 93 59 01 	sts	0x0159, r25	; 0x800159 <editValue+0x1>
     7ae:	80 93 58 01 	sts	0x0158, r24	; 0x800158 <editValue>
     7b2:	10 92 5b 01 	sts	0x015B, r1	; 0x80015b <editValue+0x3>
     7b6:	8b e3       	ldi	r24, 0x3B	; 59
     7b8:	80 93 5a 01 	sts	0x015A, r24	; 0x80015a <editValue+0x2>
     7bc:	81 e0       	ldi	r24, 0x01	; 1
     7be:	80 93 4f 01 	sts	0x014F, r24	; 0x80014f <tubeMode>
     7c2:	c2 c0       	rjmp	.+388    	; 0x948 <__stack+0x49>
     7c4:	80 91 78 01 	lds	r24, 0x0178	; 0x800178 <bright>
     7c8:	90 e0       	ldi	r25, 0x00	; 0
     7ca:	90 93 59 01 	sts	0x0159, r25	; 0x800159 <editValue+0x1>
     7ce:	80 93 58 01 	sts	0x0158, r24	; 0x800158 <editValue>
     7d2:	10 92 5b 01 	sts	0x015B, r1	; 0x80015b <editValue+0x3>
     7d6:	83 e0       	ldi	r24, 0x03	; 3
     7d8:	80 93 5a 01 	sts	0x015A, r24	; 0x80015a <editValue+0x2>
     7dc:	86 e0       	ldi	r24, 0x06	; 6
     7de:	80 93 4f 01 	sts	0x014F, r24	; 0x80014f <tubeMode>
     7e2:	81 e0       	ldi	r24, 0x01	; 1
     7e4:	b3 c0       	rjmp	.+358    	; 0x94c <__stack+0x4d>
     7e6:	80 91 5f 01 	lds	r24, 0x015F	; 0x80015f <alarmClock>
     7ea:	90 e0       	ldi	r25, 0x00	; 0
     7ec:	90 93 59 01 	sts	0x0159, r25	; 0x800159 <editValue+0x1>
     7f0:	80 93 58 01 	sts	0x0158, r24	; 0x800158 <editValue>
     7f4:	10 92 5b 01 	sts	0x015B, r1	; 0x80015b <editValue+0x3>
     7f8:	81 e0       	ldi	r24, 0x01	; 1
     7fa:	80 93 5a 01 	sts	0x015A, r24	; 0x80015a <editValue+0x2>
     7fe:	97 e0       	ldi	r25, 0x07	; 7
     800:	49 c0       	rjmp	.+146    	; 0x894 <_Z15assignEditDigitv+0x130>
     802:	80 91 60 01 	lds	r24, 0x0160	; 0x800160 <alarmClock+0x1>
     806:	90 e0       	ldi	r25, 0x00	; 0
     808:	90 93 59 01 	sts	0x0159, r25	; 0x800159 <editValue+0x1>
     80c:	80 93 58 01 	sts	0x0158, r24	; 0x800158 <editValue>
     810:	10 92 5b 01 	sts	0x015B, r1	; 0x80015b <editValue+0x3>
     814:	87 e1       	ldi	r24, 0x17	; 23
     816:	80 93 5a 01 	sts	0x015A, r24	; 0x80015a <editValue+0x2>
     81a:	88 e0       	ldi	r24, 0x08	; 8
     81c:	80 93 4f 01 	sts	0x014F, r24	; 0x80014f <tubeMode>
     820:	81 e0       	ldi	r24, 0x01	; 1
     822:	80 93 68 01 	sts	0x0168, r24	; 0x800168 <tube+0x4>
     826:	80 93 69 01 	sts	0x0169, r24	; 0x800169 <tube+0x5>
     82a:	08 95       	ret
     82c:	80 91 61 01 	lds	r24, 0x0161	; 0x800161 <alarmClock+0x2>
     830:	90 e0       	ldi	r25, 0x00	; 0
     832:	90 93 59 01 	sts	0x0159, r25	; 0x800159 <editValue+0x1>
     836:	80 93 58 01 	sts	0x0158, r24	; 0x800158 <editValue>
     83a:	10 92 5b 01 	sts	0x015B, r1	; 0x80015b <editValue+0x3>
     83e:	8b e3       	ldi	r24, 0x3B	; 59
     840:	80 93 5a 01 	sts	0x015A, r24	; 0x80015a <editValue+0x2>
     844:	88 e0       	ldi	r24, 0x08	; 8
     846:	7d c0       	rjmp	.+250    	; 0x942 <__stack+0x43>
     848:	80 91 63 01 	lds	r24, 0x0163	; 0x800163 <alarmClock+0x4>
     84c:	90 e0       	ldi	r25, 0x00	; 0
     84e:	00 90 62 01 	lds	r0, 0x0162	; 0x800162 <alarmClock+0x3>
     852:	02 c0       	rjmp	.+4      	; 0x858 <_Z15assignEditDigitv+0xf4>
     854:	95 95       	asr	r25
     856:	87 95       	ror	r24
     858:	0a 94       	dec	r0
     85a:	e2 f7       	brpl	.-8      	; 0x854 <_Z15assignEditDigitv+0xf0>
     85c:	81 70       	andi	r24, 0x01	; 1
     85e:	99 27       	eor	r25, r25
     860:	90 93 59 01 	sts	0x0159, r25	; 0x800159 <editValue+0x1>
     864:	80 93 58 01 	sts	0x0158, r24	; 0x800158 <editValue>
     868:	10 92 5b 01 	sts	0x015B, r1	; 0x80015b <editValue+0x3>
     86c:	81 e0       	ldi	r24, 0x01	; 1
     86e:	80 93 5a 01 	sts	0x015A, r24	; 0x80015a <editValue+0x2>
     872:	10 92 62 01 	sts	0x0162, r1	; 0x800162 <alarmClock+0x3>
     876:	99 e0       	ldi	r25, 0x09	; 9
     878:	0d c0       	rjmp	.+26     	; 0x894 <_Z15assignEditDigitv+0x130>
     87a:	80 91 5c 01 	lds	r24, 0x015C	; 0x80015c <hourBeep>
     87e:	90 e0       	ldi	r25, 0x00	; 0
     880:	90 93 59 01 	sts	0x0159, r25	; 0x800159 <editValue+0x1>
     884:	80 93 58 01 	sts	0x0158, r24	; 0x800158 <editValue>
     888:	10 92 5b 01 	sts	0x015B, r1	; 0x80015b <editValue+0x3>
     88c:	81 e0       	ldi	r24, 0x01	; 1
     88e:	80 93 5a 01 	sts	0x015A, r24	; 0x80015a <editValue+0x2>
     892:	9a e0       	ldi	r25, 0x0A	; 10
     894:	90 93 4f 01 	sts	0x014F, r25	; 0x80014f <tubeMode>
     898:	59 c0       	rjmp	.+178    	; 0x94c <__stack+0x4d>
     89a:	80 91 5d 01 	lds	r24, 0x015D	; 0x80015d <hourBeep+0x1>
     89e:	90 e0       	ldi	r25, 0x00	; 0
     8a0:	90 93 59 01 	sts	0x0159, r25	; 0x800159 <editValue+0x1>
     8a4:	80 93 58 01 	sts	0x0158, r24	; 0x800158 <editValue>
     8a8:	10 92 5b 01 	sts	0x015B, r1	; 0x80015b <editValue+0x3>
     8ac:	87 e1       	ldi	r24, 0x17	; 23
     8ae:	80 93 5a 01 	sts	0x015A, r24	; 0x80015a <editValue+0x2>
     8b2:	8b e0       	ldi	r24, 0x0B	; 11
     8b4:	b3 cf       	rjmp	.-154    	; 0x81c <_Z15assignEditDigitv+0xb8>
     8b6:	80 91 5e 01 	lds	r24, 0x015E	; 0x80015e <hourBeep+0x2>
     8ba:	90 e0       	ldi	r25, 0x00	; 0
     8bc:	90 93 59 01 	sts	0x0159, r25	; 0x800159 <editValue+0x1>
     8c0:	80 93 58 01 	sts	0x0158, r24	; 0x800158 <editValue>
     8c4:	10 92 5b 01 	sts	0x015B, r1	; 0x80015b <editValue+0x3>
     8c8:	87 e1       	ldi	r24, 0x17	; 23
     8ca:	80 93 5a 01 	sts	0x015A, r24	; 0x80015a <editValue+0x2>
     8ce:	8b e0       	ldi	r24, 0x0B	; 11
     8d0:	38 c0       	rjmp	.+112    	; 0x942 <__stack+0x43>
     8d2:	80 91 a8 01 	lds	r24, 0x01A8	; 0x8001a8 <dateTime+0x6>
     8d6:	90 e0       	ldi	r25, 0x00	; 0
     8d8:	90 93 59 01 	sts	0x0159, r25	; 0x800159 <editValue+0x1>
     8dc:	80 93 58 01 	sts	0x0158, r24	; 0x800158 <editValue>
     8e0:	10 92 5b 01 	sts	0x015B, r1	; 0x80015b <editValue+0x3>
     8e4:	83 e6       	ldi	r24, 0x63	; 99
     8e6:	80 93 5a 01 	sts	0x015A, r24	; 0x80015a <editValue+0x2>
     8ea:	8c e0       	ldi	r24, 0x0C	; 12
     8ec:	80 93 4f 01 	sts	0x014F, r24	; 0x80014f <tubeMode>
     8f0:	81 e0       	ldi	r24, 0x01	; 1
     8f2:	80 93 68 01 	sts	0x0168, r24	; 0x800168 <tube+0x4>
     8f6:	80 93 69 01 	sts	0x0169, r24	; 0x800169 <tube+0x5>
     8fa:	26 c0       	rjmp	.+76     	; 0x948 <__stack+0x49>
     8fc:	80 91 a6 01 	lds	r24, 0x01A6	; 0x8001a6 <dateTime+0x4>
     900:	90 e0       	ldi	r25, 0x00	; 0
     902:	90 93 59 01 	sts	0x0159, r25	; 0x800159 <editValue+0x1>
     906:	80 93 58 01 	sts	0x0158, r24	; 0x800158 <editValue>
     90a:	0e 94 99 03 	call	0x732	; 0x732 <_Z15getMaxMounthDayv>
     90e:	91 e0       	ldi	r25, 0x01	; 1
     910:	90 93 5b 01 	sts	0x015B, r25	; 0x80015b <editValue+0x3>
     914:	80 93 5a 01 	sts	0x015A, r24	; 0x80015a <editValue+0x2>
     918:	84 e0       	ldi	r24, 0x04	; 4
     91a:	80 93 4f 01 	sts	0x014F, r24	; 0x80014f <tubeMode>
     91e:	90 93 68 01 	sts	0x0168, r25	; 0x800168 <tube+0x4>
     922:	90 93 69 01 	sts	0x0169, r25	; 0x800169 <tube+0x5>
     926:	08 95       	ret
     928:	80 91 a7 01 	lds	r24, 0x01A7	; 0x8001a7 <dateTime+0x5>
     92c:	90 e0       	ldi	r25, 0x00	; 0
     92e:	90 93 59 01 	sts	0x0159, r25	; 0x800159 <editValue+0x1>
     932:	80 93 58 01 	sts	0x0158, r24	; 0x800158 <editValue>
     936:	10 92 5b 01 	sts	0x015B, r1	; 0x80015b <editValue+0x3>
     93a:	8c e0       	ldi	r24, 0x0C	; 12
     93c:	80 93 5a 01 	sts	0x015A, r24	; 0x80015a <editValue+0x2>
     940:	84 e0       	ldi	r24, 0x04	; 4
     942:	80 93 4f 01 	sts	0x014F, r24	; 0x80014f <tubeMode>
     946:	81 e0       	ldi	r24, 0x01	; 1
     948:	80 93 6a 01 	sts	0x016A, r24	; 0x80016a <tube+0x6>
     94c:	80 93 6b 01 	sts	0x016B, r24	; 0x80016b <tube+0x7>
     950:	08 95       	ret

00000952 <_Z12setDayOfWeekv>:


void setDayOfWeek() {
     952:	ef 92       	push	r14
     954:	ff 92       	push	r15
     956:	0f 93       	push	r16
     958:	1f 93       	push	r17
     95a:	cf 93       	push	r28
     95c:	df 93       	push	r29
	byte _a = f_div((14-dateTime.Month),12);
     95e:	40 91 a7 01 	lds	r20, 0x01A7	; 0x8001a7 <dateTime+0x5>
     962:	c4 2f       	mov	r28, r20
     964:	d0 e0       	ldi	r29, 0x00	; 0
     966:	2e e0       	ldi	r18, 0x0E	; 14
     968:	30 e0       	ldi	r19, 0x00	; 0
     96a:	2c 1b       	sub	r18, r28
     96c:	3d 0b       	sbc	r19, r29
	unsigned int y = dateTime.Year + 2000 - _a;
     96e:	ec e0       	ldi	r30, 0x0C	; 12
     970:	f0 e0       	ldi	r31, 0x00	; 0
     972:	c9 01       	movw	r24, r18
     974:	bf 01       	movw	r22, r30
     976:	0e 94 c2 11 	call	0x2384	; 0x2384 <__udivmodhi4>
     97a:	a9 01       	movw	r20, r18
     97c:	48 1b       	sub	r20, r24
     97e:	59 0b       	sbc	r21, r25
     980:	ca 01       	movw	r24, r20
     982:	bf 01       	movw	r22, r30
     984:	0e 94 c2 11 	call	0x2384	; 0x2384 <__udivmodhi4>
     988:	77 27       	eor	r23, r23
     98a:	20 91 a8 01 	lds	r18, 0x01A8	; 0x8001a8 <dateTime+0x6>
     98e:	30 e0       	ldi	r19, 0x00	; 0
     990:	20 53       	subi	r18, 0x30	; 48
     992:	38 4f       	sbci	r19, 0xF8	; 248
     994:	26 1b       	sub	r18, r22
     996:	37 0b       	sbc	r19, r23
	byte result = (dateTime.Day + (dateTime.Year + 2000 - _a) + f_div(y, 4) - f_div(y, 100) 
		+ f_div(y, 400) + f_div((dateTime.Month + 12 * _a - 2) * 31, 12)) % 7;
     998:	8c e0       	ldi	r24, 0x0C	; 12
     99a:	86 9f       	mul	r24, r22
     99c:	a0 01       	movw	r20, r0
     99e:	87 9f       	mul	r24, r23
     9a0:	50 0d       	add	r21, r0
     9a2:	11 24       	eor	r1, r1
     9a4:	4c 0f       	add	r20, r28
     9a6:	5d 1f       	adc	r21, r29
     9a8:	42 50       	subi	r20, 0x02	; 2
     9aa:	51 09       	sbc	r21, r1
     9ac:	8f e1       	ldi	r24, 0x1F	; 31
     9ae:	84 9f       	mul	r24, r20
     9b0:	80 01       	movw	r16, r0
     9b2:	85 9f       	mul	r24, r21
     9b4:	10 0d       	add	r17, r0
     9b6:	11 24       	eor	r1, r1
     9b8:	c0 e9       	ldi	r28, 0x90	; 144
     9ba:	d1 e0       	ldi	r29, 0x01	; 1
     9bc:	c9 01       	movw	r24, r18
     9be:	be 01       	movw	r22, r28
     9c0:	0e 94 c2 11 	call	0x2384	; 0x2384 <__udivmodhi4>
     9c4:	a9 01       	movw	r20, r18
     9c6:	48 1b       	sub	r20, r24
     9c8:	59 0b       	sbc	r21, r25
     9ca:	ca 01       	movw	r24, r20
     9cc:	be 01       	movw	r22, r28
     9ce:	0e 94 c2 11 	call	0x2384	; 0x2384 <__udivmodhi4>
     9d2:	c9 01       	movw	r24, r18
     9d4:	96 95       	lsr	r25
     9d6:	87 95       	ror	r24
     9d8:	96 95       	lsr	r25
     9da:	87 95       	ror	r24
     9dc:	eb 01       	movw	r28, r22
     9de:	c8 0f       	add	r28, r24
     9e0:	d9 1f       	adc	r29, r25
     9e2:	80 91 a6 01 	lds	r24, 0x01A6	; 0x8001a6 <dateTime+0x4>
     9e6:	a9 01       	movw	r20, r18
     9e8:	48 0f       	add	r20, r24
     9ea:	51 1d       	adc	r21, r1
     9ec:	c4 0f       	add	r28, r20
     9ee:	d5 1f       	adc	r29, r21
     9f0:	54 e6       	ldi	r21, 0x64	; 100
     9f2:	e5 2e       	mov	r14, r21
     9f4:	f1 2c       	mov	r15, r1
     9f6:	c9 01       	movw	r24, r18
     9f8:	b7 01       	movw	r22, r14
     9fa:	0e 94 c2 11 	call	0x2384	; 0x2384 <__udivmodhi4>
     9fe:	a9 01       	movw	r20, r18
     a00:	48 1b       	sub	r20, r24
     a02:	59 0b       	sbc	r21, r25
     a04:	ca 01       	movw	r24, r20
     a06:	b7 01       	movw	r22, r14
     a08:	0e 94 c2 11 	call	0x2384	; 0x2384 <__udivmodhi4>
     a0c:	9e 01       	movw	r18, r28
     a0e:	26 1b       	sub	r18, r22
     a10:	37 0b       	sbc	r19, r23
     a12:	c8 01       	movw	r24, r16
     a14:	bf 01       	movw	r22, r30
     a16:	0e 94 c2 11 	call	0x2384	; 0x2384 <__udivmodhi4>
     a1a:	a8 01       	movw	r20, r16
     a1c:	48 1b       	sub	r20, r24
     a1e:	59 0b       	sbc	r21, r25
     a20:	ca 01       	movw	r24, r20
     a22:	bf 01       	movw	r22, r30
     a24:	0e 94 c2 11 	call	0x2384	; 0x2384 <__udivmodhi4>
     a28:	c9 01       	movw	r24, r18
     a2a:	86 0f       	add	r24, r22
     a2c:	97 1f       	adc	r25, r23
     a2e:	67 e0       	ldi	r22, 0x07	; 7
     a30:	70 e0       	ldi	r23, 0x00	; 0
     a32:	0e 94 c2 11 	call	0x2384	; 0x2384 <__udivmodhi4>
	dateTime.Wday = result == 0? 7: result;
     a36:	81 11       	cpse	r24, r1
     a38:	01 c0       	rjmp	.+2      	; 0xa3c <_Z12setDayOfWeekv+0xea>
     a3a:	87 e0       	ldi	r24, 0x07	; 7
     a3c:	80 93 a5 01 	sts	0x01A5, r24	; 0x8001a5 <dateTime+0x3>
}
     a40:	df 91       	pop	r29
     a42:	cf 91       	pop	r28
     a44:	1f 91       	pop	r17
     a46:	0f 91       	pop	r16
     a48:	ff 90       	pop	r15
     a4a:	ef 90       	pop	r14
     a4c:	08 95       	ret

00000a4e <_Z8syncTimeb>:
	}
	
	
}

void syncTime(boolean ignoreStamp) {
     a4e:	0f 93       	push	r16
     a50:	1f 93       	push	r17
     a52:	cf 93       	push	r28
     a54:	c8 2f       	mov	r28, r24
	if (millis() - syncTimeStamp >= 300 || ignoreStamp) {
     a56:	0e 94 8a 10 	call	0x2114	; 0x2114 <millis>
     a5a:	00 91 a9 01 	lds	r16, 0x01A9	; 0x8001a9 <syncTimeStamp>
     a5e:	10 91 aa 01 	lds	r17, 0x01AA	; 0x8001aa <syncTimeStamp+0x1>
     a62:	20 91 ab 01 	lds	r18, 0x01AB	; 0x8001ab <syncTimeStamp+0x2>
     a66:	30 91 ac 01 	lds	r19, 0x01AC	; 0x8001ac <syncTimeStamp+0x3>
     a6a:	dc 01       	movw	r26, r24
     a6c:	cb 01       	movw	r24, r22
     a6e:	80 1b       	sub	r24, r16
     a70:	91 0b       	sbc	r25, r17
     a72:	a2 0b       	sbc	r26, r18
     a74:	b3 0b       	sbc	r27, r19
     a76:	8c 32       	cpi	r24, 0x2C	; 44
     a78:	91 40       	sbci	r25, 0x01	; 1
     a7a:	a1 05       	cpc	r26, r1
     a7c:	b1 05       	cpc	r27, r1
     a7e:	10 f4       	brcc	.+4      	; 0xa84 <_Z8syncTimeb+0x36>
     a80:	cc 23       	and	r28, r28
     a82:	71 f0       	breq	.+28     	; 0xaa0 <_Z8syncTimeb+0x52>
		RTC.read(dateTime);
     a84:	82 ea       	ldi	r24, 0xA2	; 162
     a86:	91 e0       	ldi	r25, 0x01	; 1
     a88:	0e 94 e3 08 	call	0x11c6	; 0x11c6 <_ZN9DS3231RTC4readER8DateTime>
		syncTimeStamp = millis();
     a8c:	0e 94 8a 10 	call	0x2114	; 0x2114 <millis>
     a90:	60 93 a9 01 	sts	0x01A9, r22	; 0x8001a9 <syncTimeStamp>
     a94:	70 93 aa 01 	sts	0x01AA, r23	; 0x8001aa <syncTimeStamp+0x1>
     a98:	80 93 ab 01 	sts	0x01AB, r24	; 0x8001ab <syncTimeStamp+0x2>
     a9c:	90 93 ac 01 	sts	0x01AC, r25	; 0x8001ac <syncTimeStamp+0x3>
	}
}
     aa0:	cf 91       	pop	r28
     aa2:	1f 91       	pop	r17
     aa4:	0f 91       	pop	r16
     aa6:	08 95       	ret

00000aa8 <setup>:
void sleepMode();


void wakeUp() {};

void setup() { 
     aa8:	ef 92       	push	r14
     aaa:	ff 92       	push	r15
     aac:	0f 93       	push	r16
     aae:	1f 93       	push	r17
     ab0:	cf 93       	push	r28
     ab2:	df 93       	push	r29
     ab4:	1f 92       	push	r1
     ab6:	cd b7       	in	r28, 0x3d	; 61
     ab8:	de b7       	in	r29, 0x3e	; 62
	RTC = new DS3231RTC();
     aba:	81 e0       	ldi	r24, 0x01	; 1
     abc:	90 e0       	ldi	r25, 0x00	; 0
     abe:	0e 94 bd 0f 	call	0x1f7a	; 0x1f7a <_Znwj>
     ac2:	8c 01       	movw	r16, r24
     ac4:	61 e0       	ldi	r22, 0x01	; 1
     ac6:	0e 94 89 08 	call	0x1112	; 0x1112 <_ZN9DS3231RTCC1Eb>
     aca:	61 e0       	ldi	r22, 0x01	; 1
     acc:	01 2b       	or	r16, r17
     ace:	09 f4       	brne	.+2      	; 0xad2 <setup+0x2a>
     ad0:	60 e0       	ldi	r22, 0x00	; 0
     ad2:	ce 01       	movw	r24, r28
     ad4:	01 96       	adiw	r24, 0x01	; 1
     ad6:	0e 94 89 08 	call	0x1112	; 0x1112 <_ZN9DS3231RTCC1Eb>
	syncTime(true);
     ada:	81 e0       	ldi	r24, 0x01	; 1
     adc:	0e 94 27 05 	call	0xa4e	; 0xa4e <_Z8syncTimeb>
	
	test.canBeep = true;
     ae0:	81 e0       	ldi	r24, 0x01	; 1
     ae2:	80 93 3d 01 	sts	0x013D, r24	; 0x80013d <__data_end+0x1>
	test.count = 10;
     ae6:	9a e0       	ldi	r25, 0x0A	; 10
     ae8:	90 93 3f 01 	sts	0x013F, r25	; 0x80013f <__data_end+0x3>
	test.durationActive = 1000;
     aec:	28 ee       	ldi	r18, 0xE8	; 232
     aee:	33 e0       	ldi	r19, 0x03	; 3
     af0:	30 93 42 01 	sts	0x0142, r19	; 0x800142 <__data_end+0x6>
     af4:	20 93 41 01 	sts	0x0141, r18	; 0x800141 <__data_end+0x5>
	test.durationInactive = 500;
     af8:	24 ef       	ldi	r18, 0xF4	; 244
     afa:	31 e0       	ldi	r19, 0x01	; 1
     afc:	30 93 44 01 	sts	0x0144, r19	; 0x800144 <__data_end+0x8>
     b00:	20 93 43 01 	sts	0x0143, r18	; 0x800143 <__data_end+0x7>
	test.initCount = 10;
     b04:	90 93 40 01 	sts	0x0140, r25	; 0x800140 <__data_end+0x4>
	test.isPinActive = false;
     b08:	10 92 3e 01 	sts	0x013E, r1	; 0x80013e <__data_end+0x2>
	test.timeOut = 3000;
     b0c:	28 eb       	ldi	r18, 0xB8	; 184
     b0e:	3b e0       	ldi	r19, 0x0B	; 11
     b10:	30 93 46 01 	sts	0x0146, r19	; 0x800146 <__data_end+0xa>
     b14:	20 93 45 01 	sts	0x0145, r18	; 0x800145 <__data_end+0x9>
	test.isCanInit = true;
     b18:	80 93 3c 01 	sts	0x013C, r24	; 0x80013c <__data_end>
	 
	if (eeprom_read_byte(&eeprom_init) != 100) {
     b1c:	88 e0       	ldi	r24, 0x08	; 8
     b1e:	90 e0       	ldi	r25, 0x00	; 0
     b20:	0e 94 23 13 	call	0x2646	; 0x2646 <eeprom_read_byte>
     b24:	84 36       	cpi	r24, 0x64	; 100
     b26:	69 f1       	breq	.+90     	; 0xb82 <setup+0xda>
		eeprom_write_byte(&eeprom_bright, 3);
     b28:	63 e0       	ldi	r22, 0x03	; 3
     b2a:	87 e0       	ldi	r24, 0x07	; 7
     b2c:	90 e0       	ldi	r25, 0x00	; 0
     b2e:	0e 94 3d 13 	call	0x267a	; 0x267a <eeprom_write_byte>
		eeprom_write_byte(&eeprom_isHourBeepActive, 1);
     b32:	61 e0       	ldi	r22, 0x01	; 1
     b34:	86 e0       	ldi	r24, 0x06	; 6
     b36:	90 e0       	ldi	r25, 0x00	; 0
     b38:	0e 94 3d 13 	call	0x267a	; 0x267a <eeprom_write_byte>
		eeprom_write_byte(&eeprom_hourBeepStart, 7);
     b3c:	67 e0       	ldi	r22, 0x07	; 7
     b3e:	85 e0       	ldi	r24, 0x05	; 5
     b40:	90 e0       	ldi	r25, 0x00	; 0
     b42:	0e 94 3d 13 	call	0x267a	; 0x267a <eeprom_write_byte>
		eeprom_write_byte(&eeprom_hourBeepStop, 22);
     b46:	66 e1       	ldi	r22, 0x16	; 22
     b48:	84 e0       	ldi	r24, 0x04	; 4
     b4a:	90 e0       	ldi	r25, 0x00	; 0
     b4c:	0e 94 3d 13 	call	0x267a	; 0x267a <eeprom_write_byte>
		eeprom_write_byte(&eeprom_isAlarmActive, 0);
     b50:	60 e0       	ldi	r22, 0x00	; 0
     b52:	83 e0       	ldi	r24, 0x03	; 3
     b54:	90 e0       	ldi	r25, 0x00	; 0
     b56:	0e 94 3d 13 	call	0x267a	; 0x267a <eeprom_write_byte>
		eeprom_write_byte(&eeprom_alarmHour, 7);
     b5a:	67 e0       	ldi	r22, 0x07	; 7
     b5c:	82 e0       	ldi	r24, 0x02	; 2
     b5e:	90 e0       	ldi	r25, 0x00	; 0
     b60:	0e 94 3d 13 	call	0x267a	; 0x267a <eeprom_write_byte>
		eeprom_write_byte(&eeprom_alarmMin, 0);
     b64:	60 e0       	ldi	r22, 0x00	; 0
     b66:	81 e0       	ldi	r24, 0x01	; 1
     b68:	90 e0       	ldi	r25, 0x00	; 0
     b6a:	0e 94 3d 13 	call	0x267a	; 0x267a <eeprom_write_byte>
		eeprom_write_byte(&eeprom_alarmDow, 1);
     b6e:	61 e0       	ldi	r22, 0x01	; 1
     b70:	80 e0       	ldi	r24, 0x00	; 0
     b72:	90 e0       	ldi	r25, 0x00	; 0
     b74:	0e 94 3d 13 	call	0x267a	; 0x267a <eeprom_write_byte>
		eeprom_write_byte(&eeprom_init, 100);
     b78:	64 e6       	ldi	r22, 0x64	; 100
     b7a:	88 e0       	ldi	r24, 0x08	; 8
     b7c:	90 e0       	ldi	r25, 0x00	; 0
     b7e:	0e 94 3d 13 	call	0x267a	; 0x267a <eeprom_write_byte>
	}

	pinMode(BRIGHT, INPUT);
     b82:	60 e0       	ldi	r22, 0x00	; 0
     b84:	80 e1       	ldi	r24, 0x10	; 16
     b86:	0e 94 22 11 	call	0x2244	; 0x2244 <pinMode>
	pinMode(BATTERY, INPUT);
     b8a:	60 e0       	ldi	r22, 0x00	; 0
     b8c:	81 e1       	ldi	r24, 0x11	; 17
     b8e:	0e 94 22 11 	call	0x2244	; 0x2244 <pinMode>
	pinMode(13, OUTPUT);
     b92:	61 e0       	ldi	r22, 0x01	; 1
     b94:	8d e0       	ldi	r24, 0x0D	; 13
     b96:	0e 94 22 11 	call	0x2244	; 0x2244 <pinMode>
	pinMode(BEEPER, OUTPUT);
     b9a:	61 e0       	ldi	r22, 0x01	; 1
     b9c:	81 e0       	ldi	r24, 0x01	; 1
     b9e:	0e 94 22 11 	call	0x2244	; 0x2244 <pinMode>
     ba2:	08 e1       	ldi	r16, 0x18	; 24
     ba4:	11 e0       	ldi	r17, 0x01	; 1
     ba6:	78 01       	movw	r14, r16

	for (byte i = 0; i < 4; i++) {
		pinMode(rankD[i], OUTPUT);
     ba8:	61 e0       	ldi	r22, 0x01	; 1
     baa:	f8 01       	movw	r30, r16
     bac:	81 91       	ld	r24, Z+
     bae:	8f 01       	movw	r16, r30
     bb0:	0e 94 22 11 	call	0x2244	; 0x2244 <pinMode>
		digitalWrite(rankD[i], 1);
     bb4:	61 e0       	ldi	r22, 0x01	; 1
     bb6:	f7 01       	movw	r30, r14
     bb8:	80 81       	ld	r24, Z
     bba:	0e 94 5e 11 	call	0x22bc	; 0x22bc <digitalWrite>
	pinMode(BRIGHT, INPUT);
	pinMode(BATTERY, INPUT);
	pinMode(13, OUTPUT);
	pinMode(BEEPER, OUTPUT);

	for (byte i = 0; i < 4; i++) {
     bbe:	f1 e0       	ldi	r31, 0x01	; 1
     bc0:	0c 31       	cpi	r16, 0x1C	; 28
     bc2:	1f 07       	cpc	r17, r31
     bc4:	81 f7       	brne	.-32     	; 0xba6 <setup+0xfe>
		pinMode(rankD[i], OUTPUT);
		digitalWrite(rankD[i], 1);
	}
	digitalWrite(rankD[0], 0);
     bc6:	60 e0       	ldi	r22, 0x00	; 0
     bc8:	80 91 18 01 	lds	r24, 0x0118	; 0x800118 <rankD>
     bcc:	0e 94 5e 11 	call	0x22bc	; 0x22bc <digitalWrite>
     bd0:	0c e1       	ldi	r16, 0x1C	; 28
     bd2:	11 e0       	ldi	r17, 0x01	; 1

	for (byte i = 0; i < 9; i++) {
		pinMode(pinsD[i], OUTPUT);
     bd4:	61 e0       	ldi	r22, 0x01	; 1
     bd6:	f8 01       	movw	r30, r16
     bd8:	81 91       	ld	r24, Z+
     bda:	8f 01       	movw	r16, r30
     bdc:	0e 94 22 11 	call	0x2244	; 0x2244 <pinMode>
		pinMode(rankD[i], OUTPUT);
		digitalWrite(rankD[i], 1);
	}
	digitalWrite(rankD[0], 0);

	for (byte i = 0; i < 9; i++) {
     be0:	f1 e0       	ldi	r31, 0x01	; 1
     be2:	05 32       	cpi	r16, 0x25	; 37
     be4:	1f 07       	cpc	r17, r31
     be6:	b1 f7       	brne	.-20     	; 0xbd4 <setup+0x12c>
		pinMode(pinsD[i], OUTPUT);
	}
	
	alarmClock.isActive = eeprom_read_byte(&eeprom_isAlarmActive);
     be8:	83 e0       	ldi	r24, 0x03	; 3
     bea:	90 e0       	ldi	r25, 0x00	; 0
     bec:	0e 94 23 13 	call	0x2646	; 0x2646 <eeprom_read_byte>
     bf0:	80 93 5f 01 	sts	0x015F, r24	; 0x80015f <alarmClock>
	alarmClock.hour = eeprom_read_byte(&eeprom_alarmHour);
     bf4:	82 e0       	ldi	r24, 0x02	; 2
     bf6:	90 e0       	ldi	r25, 0x00	; 0
     bf8:	0e 94 23 13 	call	0x2646	; 0x2646 <eeprom_read_byte>
     bfc:	80 93 60 01 	sts	0x0160, r24	; 0x800160 <alarmClock+0x1>
	alarmClock.minute = eeprom_read_byte(&eeprom_alarmMin);
     c00:	81 e0       	ldi	r24, 0x01	; 1
     c02:	90 e0       	ldi	r25, 0x00	; 0
     c04:	0e 94 23 13 	call	0x2646	; 0x2646 <eeprom_read_byte>
     c08:	80 93 61 01 	sts	0x0161, r24	; 0x800161 <alarmClock+0x2>
	alarmClock.dowState = eeprom_read_byte(&eeprom_alarmDow);
     c0c:	80 e0       	ldi	r24, 0x00	; 0
     c0e:	90 e0       	ldi	r25, 0x00	; 0
     c10:	0e 94 23 13 	call	0x2646	; 0x2646 <eeprom_read_byte>
     c14:	80 93 63 01 	sts	0x0163, r24	; 0x800163 <alarmClock+0x4>
	
	hourBeep.isActive = eeprom_read_byte(&eeprom_isHourBeepActive);
     c18:	86 e0       	ldi	r24, 0x06	; 6
     c1a:	90 e0       	ldi	r25, 0x00	; 0
     c1c:	0e 94 23 13 	call	0x2646	; 0x2646 <eeprom_read_byte>
     c20:	80 93 5c 01 	sts	0x015C, r24	; 0x80015c <hourBeep>
	hourBeep.start = eeprom_read_byte(&eeprom_hourBeepStart);
     c24:	85 e0       	ldi	r24, 0x05	; 5
     c26:	90 e0       	ldi	r25, 0x00	; 0
     c28:	0e 94 23 13 	call	0x2646	; 0x2646 <eeprom_read_byte>
     c2c:	80 93 5d 01 	sts	0x015D, r24	; 0x80015d <hourBeep+0x1>
	hourBeep.stop = eeprom_read_byte(&eeprom_hourBeepStop);
     c30:	84 e0       	ldi	r24, 0x04	; 4
     c32:	90 e0       	ldi	r25, 0x00	; 0
     c34:	0e 94 23 13 	call	0x2646	; 0x2646 <eeprom_read_byte>
     c38:	80 93 5e 01 	sts	0x015E, r24	; 0x80015e <hourBeep+0x2>
	
	bright.mode = eeprom_read_byte(&eeprom_bright);
     c3c:	87 e0       	ldi	r24, 0x07	; 7
     c3e:	90 e0       	ldi	r25, 0x00	; 0
     c40:	0e 94 23 13 	call	0x2646	; 0x2646 <eeprom_read_byte>
     c44:	80 93 78 01 	sts	0x0178, r24	; 0x800178 <bright>
	setBrightDuration(bright.mode);
     c48:	0e 94 e3 01 	call	0x3c6	; 0x3c6 <_Z17setBrightDurationh>
	
	button.pressStamp = 0;
     c4c:	10 92 9e 01 	sts	0x019E, r1	; 0x80019e <button+0x2>
     c50:	10 92 9f 01 	sts	0x019F, r1	; 0x80019f <button+0x3>
     c54:	10 92 a0 01 	sts	0x01A0, r1	; 0x8001a0 <button+0x4>
     c58:	10 92 a1 01 	sts	0x01A1, r1	; 0x8001a1 <button+0x5>
	button.longPressTimeDetector = 1300;
     c5c:	84 e1       	ldi	r24, 0x14	; 20
     c5e:	95 e0       	ldi	r25, 0x05	; 5
     c60:	90 93 9d 01 	sts	0x019D, r25	; 0x80019d <button+0x1>
     c64:	80 93 9c 01 	sts	0x019C, r24	; 0x80019c <button>
	buttonCallback.attachClick(buttonClick);
     c68:	6d e5       	ldi	r22, 0x5D	; 93
     c6a:	71 e0       	ldi	r23, 0x01	; 1
     c6c:	8b e7       	ldi	r24, 0x7B	; 123
     c6e:	91 e0       	ldi	r25, 0x01	; 1
     c70:	0e 94 de 09 	call	0x13bc	; 0x13bc <_ZN9OneButton11attachClickEPFvvE>
	buttonCallback.attachDoubleClick(buttonDoubleClick);
     c74:	66 eb       	ldi	r22, 0xB6	; 182
     c76:	70 e0       	ldi	r23, 0x00	; 0
     c78:	8b e7       	ldi	r24, 0x7B	; 123
     c7a:	91 e0       	ldi	r25, 0x01	; 1
     c7c:	0e 94 e2 09 	call	0x13c4	; 0x13c4 <_ZN9OneButton17attachDoubleClickEPFvvE>
	buttonCallback.attachLongPressStart(buttonLongPressStart);
     c80:	66 e6       	ldi	r22, 0x66	; 102
     c82:	77 e0       	ldi	r23, 0x07	; 7
     c84:	8b e7       	ldi	r24, 0x7B	; 123
     c86:	91 e0       	ldi	r25, 0x01	; 1
     c88:	0e 94 e6 09 	call	0x13cc	; 0x13cc <_ZN9OneButton20attachLongPressStartEPFvvE>
	buttonCallback.attachDuringLongPress(buttonLongPress);
     c8c:	63 e7       	ldi	r22, 0x73	; 115
     c8e:	77 e0       	ldi	r23, 0x07	; 7
     c90:	8b e7       	ldi	r24, 0x7B	; 123
     c92:	91 e0       	ldi	r25, 0x01	; 1
     c94:	0e 94 ea 09 	call	0x13d4	; 0x13d4 <_ZN9OneButton21attachDuringLongPressEPFvvE>
	buttonCallback.setDebounceTicks(30);
     c98:	6e e1       	ldi	r22, 0x1E	; 30
     c9a:	70 e0       	ldi	r23, 0x00	; 0
     c9c:	8b e7       	ldi	r24, 0x7B	; 123
     c9e:	91 e0       	ldi	r25, 0x01	; 1
     ca0:	0e 94 d2 09 	call	0x13a4	; 0x13a4 <_ZN9OneButton16setDebounceTicksEi>
	buttonCallback.setClickTicks(200);
     ca4:	68 ec       	ldi	r22, 0xC8	; 200
     ca6:	70 e0       	ldi	r23, 0x00	; 0
     ca8:	8b e7       	ldi	r24, 0x7B	; 123
     caa:	91 e0       	ldi	r25, 0x01	; 1
     cac:	0e 94 d6 09 	call	0x13ac	; 0x13ac <_ZN9OneButton13setClickTicksEi>
	buttonCallback.setPressTicks(button.longPressTimeDetector);
     cb0:	60 91 9c 01 	lds	r22, 0x019C	; 0x80019c <button>
     cb4:	70 91 9d 01 	lds	r23, 0x019D	; 0x80019d <button+0x1>
     cb8:	8b e7       	ldi	r24, 0x7B	; 123
     cba:	91 e0       	ldi	r25, 0x01	; 1
     cbc:	0e 94 da 09 	call	0x13b4	; 0x13b4 <_ZN9OneButton13setPressTicksEi>
	
	modeWork = mw_clock;
     cc0:	10 92 50 01 	sts	0x0150, r1	; 0x800150 <modeWork>
	tubeMode = tm_showTime;
     cc4:	81 e0       	ldi	r24, 0x01	; 1
     cc6:	80 93 4f 01 	sts	0x014F, r24	; 0x80014f <tubeMode>
	tubeModeStamp = millis();
     cca:	0e 94 8a 10 	call	0x2114	; 0x2114 <millis>
     cce:	60 93 54 01 	sts	0x0154, r22	; 0x800154 <tubeModeStamp>
     cd2:	70 93 55 01 	sts	0x0155, r23	; 0x800155 <tubeModeStamp+0x1>
     cd6:	80 93 56 01 	sts	0x0156, r24	; 0x800156 <tubeModeStamp+0x2>
     cda:	90 93 57 01 	sts	0x0157, r25	; 0x800157 <tubeModeStamp+0x3>
     cde:	0f 90       	pop	r0
     ce0:	df 91       	pop	r29
     ce2:	cf 91       	pop	r28
     ce4:	1f 91       	pop	r17
     ce6:	0f 91       	pop	r16
     ce8:	ff 90       	pop	r15
     cea:	ef 90       	pop	r14
     cec:	08 95       	ret

00000cee <_Z12saveSettingsv>:
	dateTime.Wday = result == 0? 7: result;
}

void saveSettings() {
	byte _maxMonthDay;
	switch (modeWork) {
     cee:	e0 91 50 01 	lds	r30, 0x0150	; 0x800150 <modeWork>
     cf2:	8e 2f       	mov	r24, r30
     cf4:	90 e0       	ldi	r25, 0x00	; 0
     cf6:	fc 01       	movw	r30, r24
     cf8:	31 97       	sbiw	r30, 0x01	; 1
     cfa:	ed 30       	cpi	r30, 0x0D	; 13
     cfc:	f1 05       	cpc	r31, r1
     cfe:	08 f0       	brcs	.+2      	; 0xd02 <_Z12saveSettingsv+0x14>
     d00:	b4 c0       	rjmp	.+360    	; 0xe6a <_Z12saveSettingsv+0x17c>
     d02:	e2 5b       	subi	r30, 0xB2	; 178
     d04:	ff 4f       	sbci	r31, 0xFF	; 255
     d06:	0c 94 ea 11 	jmp	0x23d4	; 0x23d4 <__tablejump2__>
		case mw_setHour:
			RTC.writeRTC(RTC_HOURS, RTC.dec2bcd(editValue.value));
     d0a:	60 91 58 01 	lds	r22, 0x0158	; 0x800158 <editValue>
     d0e:	8d ea       	ldi	r24, 0xAD	; 173
     d10:	91 e0       	ldi	r25, 0x01	; 1
     d12:	0e 94 90 08 	call	0x1120	; 0x1120 <_ZN9DS3231RTC7dec2bcdEh>
     d16:	48 2f       	mov	r20, r24
     d18:	62 e0       	ldi	r22, 0x02	; 2
     d1a:	a0 c0       	rjmp	.+320    	; 0xe5c <_Z12saveSettingsv+0x16e>
			syncTime();
			break;
		case mw_setMin:
			RTC.writeRTC(RTC_MINUTES, RTC.dec2bcd(editValue.value));
     d1c:	60 91 58 01 	lds	r22, 0x0158	; 0x800158 <editValue>
     d20:	8d ea       	ldi	r24, 0xAD	; 173
     d22:	91 e0       	ldi	r25, 0x01	; 1
     d24:	0e 94 90 08 	call	0x1120	; 0x1120 <_ZN9DS3231RTC7dec2bcdEh>
     d28:	48 2f       	mov	r20, r24
     d2a:	61 e0       	ldi	r22, 0x01	; 1
     d2c:	97 c0       	rjmp	.+302    	; 0xe5c <_Z12saveSettingsv+0x16e>
			syncTime();
			break;
		case mw_setBright:
			bright.mode = editValue.value;
     d2e:	60 91 58 01 	lds	r22, 0x0158	; 0x800158 <editValue>
     d32:	60 93 78 01 	sts	0x0178, r22	; 0x800178 <bright>
			eeprom_update_byte(&eeprom_bright, bright.mode);
     d36:	87 e0       	ldi	r24, 0x07	; 7
     d38:	90 e0       	ldi	r25, 0x00	; 0
     d3a:	0e 94 2b 13 	call	0x2656	; 0x2656 <eeprom_update_byte>
			setBrightDuration(bright.mode);
     d3e:	80 91 78 01 	lds	r24, 0x0178	; 0x800178 <bright>
     d42:	0c 94 e3 01 	jmp	0x3c6	; 0x3c6 <_Z17setBrightDurationh>
			break;
		case mw_setAlarmState:
			alarmClock.isActive = editValue.value;
     d46:	60 91 58 01 	lds	r22, 0x0158	; 0x800158 <editValue>
     d4a:	60 93 5f 01 	sts	0x015F, r22	; 0x80015f <alarmClock>
			eeprom_update_byte(&eeprom_isAlarmActive, alarmClock.isActive);
     d4e:	83 e0       	ldi	r24, 0x03	; 3
     d50:	90 e0       	ldi	r25, 0x00	; 0
     d52:	54 c0       	rjmp	.+168    	; 0xdfc <_Z12saveSettingsv+0x10e>
			break;
		case mw_setAlarmHour:
			alarmClock.hour = editValue.value;
     d54:	60 91 58 01 	lds	r22, 0x0158	; 0x800158 <editValue>
     d58:	60 93 60 01 	sts	0x0160, r22	; 0x800160 <alarmClock+0x1>
			eeprom_update_byte(&eeprom_alarmHour, alarmClock.hour);
     d5c:	82 e0       	ldi	r24, 0x02	; 2
     d5e:	90 e0       	ldi	r25, 0x00	; 0
     d60:	4d c0       	rjmp	.+154    	; 0xdfc <_Z12saveSettingsv+0x10e>
			break;
		case mw_setAlarmMin:
			alarmClock.minute = editValue.value;
     d62:	60 91 58 01 	lds	r22, 0x0158	; 0x800158 <editValue>
     d66:	60 93 61 01 	sts	0x0161, r22	; 0x800161 <alarmClock+0x2>
			eeprom_update_byte(&eeprom_alarmMin, alarmClock.minute);
     d6a:	81 e0       	ldi	r24, 0x01	; 1
     d6c:	90 e0       	ldi	r25, 0x00	; 0
     d6e:	46 c0       	rjmp	.+140    	; 0xdfc <_Z12saveSettingsv+0x10e>
			break;
		case mw_setAlarmDow:
			bitWrite(alarmClock.dowState, alarmClock.curDow, editValue.value);
     d70:	80 91 58 01 	lds	r24, 0x0158	; 0x800158 <editValue>
     d74:	90 91 59 01 	lds	r25, 0x0159	; 0x800159 <editValue+0x1>
     d78:	30 91 62 01 	lds	r19, 0x0162	; 0x800162 <alarmClock+0x3>
     d7c:	20 91 63 01 	lds	r18, 0x0163	; 0x800163 <alarmClock+0x4>
     d80:	89 2b       	or	r24, r25
     d82:	81 f0       	breq	.+32     	; 0xda4 <_Z12saveSettingsv+0xb6>
     d84:	41 e0       	ldi	r20, 0x01	; 1
     d86:	50 e0       	ldi	r21, 0x00	; 0
     d88:	60 e0       	ldi	r22, 0x00	; 0
     d8a:	70 e0       	ldi	r23, 0x00	; 0
     d8c:	03 2e       	mov	r0, r19
     d8e:	04 c0       	rjmp	.+8      	; 0xd98 <_Z12saveSettingsv+0xaa>
     d90:	44 0f       	add	r20, r20
     d92:	55 1f       	adc	r21, r21
     d94:	66 1f       	adc	r22, r22
     d96:	77 1f       	adc	r23, r23
     d98:	0a 94       	dec	r0
     d9a:	d2 f7       	brpl	.-12     	; 0xd90 <_Z12saveSettingsv+0xa2>
     d9c:	42 2b       	or	r20, r18
     d9e:	40 93 63 01 	sts	0x0163, r20	; 0x800163 <alarmClock+0x4>
     da2:	10 c0       	rjmp	.+32     	; 0xdc4 <_Z12saveSettingsv+0xd6>
     da4:	81 e0       	ldi	r24, 0x01	; 1
     da6:	90 e0       	ldi	r25, 0x00	; 0
     da8:	a0 e0       	ldi	r26, 0x00	; 0
     daa:	b0 e0       	ldi	r27, 0x00	; 0
     dac:	03 2e       	mov	r0, r19
     dae:	04 c0       	rjmp	.+8      	; 0xdb8 <_Z12saveSettingsv+0xca>
     db0:	88 0f       	add	r24, r24
     db2:	99 1f       	adc	r25, r25
     db4:	aa 1f       	adc	r26, r26
     db6:	bb 1f       	adc	r27, r27
     db8:	0a 94       	dec	r0
     dba:	d2 f7       	brpl	.-12     	; 0xdb0 <_Z12saveSettingsv+0xc2>
     dbc:	80 95       	com	r24
     dbe:	82 23       	and	r24, r18
     dc0:	80 93 63 01 	sts	0x0163, r24	; 0x800163 <alarmClock+0x4>
			if (alarmClock.curDow == 6) {
     dc4:	36 30       	cpi	r19, 0x06	; 6
     dc6:	09 f0       	breq	.+2      	; 0xdca <_Z12saveSettingsv+0xdc>
     dc8:	50 c0       	rjmp	.+160    	; 0xe6a <_Z12saveSettingsv+0x17c>
				eeprom_update_byte(&eeprom_alarmDow, alarmClock.dowState);
     dca:	60 91 63 01 	lds	r22, 0x0163	; 0x800163 <alarmClock+0x4>
     dce:	80 e0       	ldi	r24, 0x00	; 0
     dd0:	90 e0       	ldi	r25, 0x00	; 0
     dd2:	14 c0       	rjmp	.+40     	; 0xdfc <_Z12saveSettingsv+0x10e>
			}
			break;
		case mw_setHourBeepState:
			hourBeep.isActive = editValue.value;
     dd4:	60 91 58 01 	lds	r22, 0x0158	; 0x800158 <editValue>
     dd8:	60 93 5c 01 	sts	0x015C, r22	; 0x80015c <hourBeep>
			eeprom_update_byte(&eeprom_isHourBeepActive, hourBeep.isActive);
     ddc:	86 e0       	ldi	r24, 0x06	; 6
     dde:	90 e0       	ldi	r25, 0x00	; 0
     de0:	0d c0       	rjmp	.+26     	; 0xdfc <_Z12saveSettingsv+0x10e>
			break;
		case mw_setHourBeepStart:
			hourBeep.start = editValue.value;
     de2:	60 91 58 01 	lds	r22, 0x0158	; 0x800158 <editValue>
     de6:	60 93 5d 01 	sts	0x015D, r22	; 0x80015d <hourBeep+0x1>
			eeprom_update_byte(&eeprom_hourBeepStart, hourBeep.start);
     dea:	85 e0       	ldi	r24, 0x05	; 5
     dec:	90 e0       	ldi	r25, 0x00	; 0
     dee:	06 c0       	rjmp	.+12     	; 0xdfc <_Z12saveSettingsv+0x10e>
			break;
		case mw_setHourBeepStop:
			hourBeep.stop = editValue.value;
     df0:	60 91 58 01 	lds	r22, 0x0158	; 0x800158 <editValue>
     df4:	60 93 5e 01 	sts	0x015E, r22	; 0x80015e <hourBeep+0x2>
			eeprom_update_byte(&eeprom_hourBeepStop, hourBeep.stop);
     df8:	84 e0       	ldi	r24, 0x04	; 4
     dfa:	90 e0       	ldi	r25, 0x00	; 0
     dfc:	0c 94 2b 13 	jmp	0x2656	; 0x2656 <eeprom_update_byte>
			break;
		case mw_setYear:
			RTC.writeRTC(RTC_YEAR, RTC.dec2bcd(editValue.value));
     e00:	60 91 58 01 	lds	r22, 0x0158	; 0x800158 <editValue>
     e04:	8d ea       	ldi	r24, 0xAD	; 173
     e06:	91 e0       	ldi	r25, 0x01	; 1
     e08:	0e 94 90 08 	call	0x1120	; 0x1120 <_ZN9DS3231RTC7dec2bcdEh>
     e0c:	48 2f       	mov	r20, r24
     e0e:	66 e0       	ldi	r22, 0x06	; 6
     e10:	0b c0       	rjmp	.+22     	; 0xe28 <_Z12saveSettingsv+0x13a>
			setDayOfWeek();
			RTC.writeRTC(RTC_DAY, dateTime.Wday);
			syncTime();
			break;
		case mw_setDay:
			RTC.writeRTC(RTC_DATE, RTC.dec2bcd(editValue.value));
     e12:	60 91 58 01 	lds	r22, 0x0158	; 0x800158 <editValue>
     e16:	13 c0       	rjmp	.+38     	; 0xe3e <_Z12saveSettingsv+0x150>
			setDayOfWeek();
			RTC.writeRTC(RTC_DAY, dateTime.Wday);
			syncTime();
			break;
		case mw_setMonth:
			RTC.writeRTC(RTC_MONTH, RTC.dec2bcd(editValue.value));
     e18:	60 91 58 01 	lds	r22, 0x0158	; 0x800158 <editValue>
     e1c:	8d ea       	ldi	r24, 0xAD	; 173
     e1e:	91 e0       	ldi	r25, 0x01	; 1
     e20:	0e 94 90 08 	call	0x1120	; 0x1120 <_ZN9DS3231RTC7dec2bcdEh>
     e24:	48 2f       	mov	r20, r24
     e26:	65 e0       	ldi	r22, 0x05	; 5
     e28:	8d ea       	ldi	r24, 0xAD	; 173
     e2a:	91 e0       	ldi	r25, 0x01	; 1
     e2c:	0e 94 d3 08 	call	0x11a6	; 0x11a6 <_ZN9DS3231RTC8writeRTCEhh>
			_maxMonthDay = getMaxMounthDay();
     e30:	0e 94 99 03 	call	0x732	; 0x732 <_Z15getMaxMounthDayv>
			if (_maxMonthDay > dateTime.Day) {
     e34:	90 91 a6 01 	lds	r25, 0x01A6	; 0x8001a6 <dateTime+0x4>
     e38:	98 17       	cp	r25, r24
     e3a:	58 f4       	brcc	.+22     	; 0xe52 <_Z12saveSettingsv+0x164>
				RTC.writeRTC(RTC_DATE, RTC.dec2bcd(_maxMonthDay));
     e3c:	68 2f       	mov	r22, r24
     e3e:	8d ea       	ldi	r24, 0xAD	; 173
     e40:	91 e0       	ldi	r25, 0x01	; 1
     e42:	0e 94 90 08 	call	0x1120	; 0x1120 <_ZN9DS3231RTC7dec2bcdEh>
     e46:	48 2f       	mov	r20, r24
     e48:	64 e0       	ldi	r22, 0x04	; 4
     e4a:	8d ea       	ldi	r24, 0xAD	; 173
     e4c:	91 e0       	ldi	r25, 0x01	; 1
     e4e:	0e 94 d3 08 	call	0x11a6	; 0x11a6 <_ZN9DS3231RTC8writeRTCEhh>
			}
			setDayOfWeek();
     e52:	0e 94 a9 04 	call	0x952	; 0x952 <_Z12setDayOfWeekv>
			RTC.writeRTC(RTC_DAY, dateTime.Wday);
     e56:	40 91 a5 01 	lds	r20, 0x01A5	; 0x8001a5 <dateTime+0x3>
     e5a:	63 e0       	ldi	r22, 0x03	; 3
     e5c:	8d ea       	ldi	r24, 0xAD	; 173
     e5e:	91 e0       	ldi	r25, 0x01	; 1
     e60:	0e 94 d3 08 	call	0x11a6	; 0x11a6 <_ZN9DS3231RTC8writeRTCEhh>
			syncTime();
     e64:	81 e0       	ldi	r24, 0x01	; 1
     e66:	0c 94 27 05 	jmp	0xa4e	; 0xa4e <_Z8syncTimeb>
     e6a:	08 95       	ret

00000e6c <_Z14changeModeWorkv>:
	}
}


void changeModeWork() {
	prevSec = dateTime.Second;
     e6c:	80 91 a2 01 	lds	r24, 0x01A2	; 0x8001a2 <dateTime>
     e70:	80 93 52 01 	sts	0x0152, r24	; 0x800152 <prevSec>
	returnTime = 10;
     e74:	8a e0       	ldi	r24, 0x0A	; 10
     e76:	80 93 53 01 	sts	0x0153, r24	; 0x800153 <returnTime>
	if (modeWork != mw_clock) {
     e7a:	80 91 50 01 	lds	r24, 0x0150	; 0x800150 <modeWork>
     e7e:	81 11       	cpse	r24, r1
		saveSettings();
     e80:	0e 94 77 06 	call	0xcee	; 0xcee <_Z12saveSettingsv>
	}
	switch(modeWork) {
     e84:	80 91 50 01 	lds	r24, 0x0150	; 0x800150 <modeWork>
     e88:	87 30       	cpi	r24, 0x07	; 7
     e8a:	69 f0       	breq	.+26     	; 0xea6 <_Z14changeModeWorkv+0x3a>
     e8c:	88 30       	cpi	r24, 0x08	; 8
     e8e:	41 f0       	breq	.+16     	; 0xea0 <_Z14changeModeWorkv+0x34>
     e90:	84 30       	cpi	r24, 0x04	; 4
     e92:	89 f4       	brne	.+34     	; 0xeb6 <_Z14changeModeWorkv+0x4a>
		case mw_setAlarmState:
			if (!alarmClock.isActive) {
     e94:	90 91 5f 01 	lds	r25, 0x015F	; 0x80015f <alarmClock>
     e98:	91 11       	cpse	r25, r1
     e9a:	13 c0       	rjmp	.+38     	; 0xec2 <_Z14changeModeWorkv+0x56>
				modeWork = mw_setHourBeepState;
     e9c:	88 e0       	ldi	r24, 0x08	; 8
     e9e:	12 c0       	rjmp	.+36     	; 0xec4 <_Z14changeModeWorkv+0x58>
				assignEditDigit();
				return;
			}
			break;
		case mw_setHourBeepState: 
			if (!hourBeep.isActive) {
     ea0:	90 91 5c 01 	lds	r25, 0x015C	; 0x80015c <hourBeep>
     ea4:	f9 cf       	rjmp	.-14     	; 0xe98 <_Z14changeModeWorkv+0x2c>
				assignEditDigit();
				return;
			}
			break;
		case mw_setAlarmDow:
			if (alarmClock.curDow < 6) {
     ea6:	90 91 62 01 	lds	r25, 0x0162	; 0x800162 <alarmClock+0x3>
     eaa:	96 30       	cpi	r25, 0x06	; 6
     eac:	50 f4       	brcc	.+20     	; 0xec2 <_Z14changeModeWorkv+0x56>
				alarmClock.curDow++;
     eae:	9f 5f       	subi	r25, 0xFF	; 255
     eb0:	90 93 62 01 	sts	0x0162, r25	; 0x800162 <alarmClock+0x3>
     eb4:	09 c0       	rjmp	.+18     	; 0xec8 <_Z14changeModeWorkv+0x5c>
				assignEditDigit();
				return;
			}
			break;
	}
	if (modeWork == mw_lastMode) {
     eb6:	8d 30       	cpi	r24, 0x0D	; 13
     eb8:	21 f4       	brne	.+8      	; 0xec2 <_Z14changeModeWorkv+0x56>
		modeWork = mw_clock;
     eba:	10 92 50 01 	sts	0x0150, r1	; 0x800150 <modeWork>
		resetTubeFlash();
     ebe:	0c 94 d8 00 	jmp	0x1b0	; 0x1b0 <_Z14resetTubeFlashv>
	} else {
		modeWork++;
     ec2:	8f 5f       	subi	r24, 0xFF	; 255
     ec4:	80 93 50 01 	sts	0x0150, r24	; 0x800150 <modeWork>
		assignEditDigit();
     ec8:	0c 94 b2 03 	jmp	0x764	; 0x764 <_Z15assignEditDigitv>

00000ecc <_Z20buttonLongPressStartv>:
		}
	}
}

void buttonLongPressStart() {
  changeModeWork();
     ecc:	0e 94 36 07 	call	0xe6c	; 0xe6c <_Z14changeModeWorkv>
  button.pressStamp = millis();
     ed0:	0e 94 8a 10 	call	0x2114	; 0x2114 <millis>
     ed4:	60 93 9e 01 	sts	0x019E, r22	; 0x80019e <button+0x2>
     ed8:	70 93 9f 01 	sts	0x019F, r23	; 0x80019f <button+0x3>
     edc:	80 93 a0 01 	sts	0x01A0, r24	; 0x8001a0 <button+0x4>
     ee0:	90 93 a1 01 	sts	0x01A1, r25	; 0x8001a1 <button+0x5>
     ee4:	08 95       	ret

00000ee6 <_Z15buttonLongPressv>:
}

void buttonLongPress() {
     ee6:	0f 93       	push	r16
     ee8:	1f 93       	push	r17
  if (millis() - button.pressStamp >= button.longPressTimeDetector) {
     eea:	0e 94 8a 10 	call	0x2114	; 0x2114 <millis>
     eee:	00 91 9e 01 	lds	r16, 0x019E	; 0x80019e <button+0x2>
     ef2:	10 91 9f 01 	lds	r17, 0x019F	; 0x80019f <button+0x3>
     ef6:	20 91 a0 01 	lds	r18, 0x01A0	; 0x8001a0 <button+0x4>
     efa:	30 91 a1 01 	lds	r19, 0x01A1	; 0x8001a1 <button+0x5>
     efe:	ab 01       	movw	r20, r22
     f00:	bc 01       	movw	r22, r24
     f02:	40 1b       	sub	r20, r16
     f04:	51 0b       	sbc	r21, r17
     f06:	62 0b       	sbc	r22, r18
     f08:	73 0b       	sbc	r23, r19
     f0a:	80 91 9c 01 	lds	r24, 0x019C	; 0x80019c <button>
     f0e:	90 91 9d 01 	lds	r25, 0x019D	; 0x80019d <button+0x1>
     f12:	09 2e       	mov	r0, r25
     f14:	00 0c       	add	r0, r0
     f16:	aa 0b       	sbc	r26, r26
     f18:	bb 0b       	sbc	r27, r27
     f1a:	48 17       	cp	r20, r24
     f1c:	59 07       	cpc	r21, r25
     f1e:	6a 07       	cpc	r22, r26
     f20:	7b 07       	cpc	r23, r27
     f22:	60 f0       	brcs	.+24     	; 0xf3c <_Z15buttonLongPressv+0x56>
    changeModeWork();
     f24:	0e 94 36 07 	call	0xe6c	; 0xe6c <_Z14changeModeWorkv>
    button.pressStamp = millis();
     f28:	0e 94 8a 10 	call	0x2114	; 0x2114 <millis>
     f2c:	60 93 9e 01 	sts	0x019E, r22	; 0x80019e <button+0x2>
     f30:	70 93 9f 01 	sts	0x019F, r23	; 0x80019f <button+0x3>
     f34:	80 93 a0 01 	sts	0x01A0, r24	; 0x8001a0 <button+0x4>
     f38:	90 93 a1 01 	sts	0x01A1, r25	; 0x8001a1 <button+0x5>
  }
}
     f3c:	1f 91       	pop	r17
     f3e:	0f 91       	pop	r16
     f40:	08 95       	ret

00000f42 <_Z14beepControllerP6Beeper>:
		syncTimeStamp = millis();
	}
}


void beepController(Beeper* beeper) {
     f42:	8f 92       	push	r8
     f44:	9f 92       	push	r9
     f46:	af 92       	push	r10
     f48:	bf 92       	push	r11
     f4a:	cf 92       	push	r12
     f4c:	df 92       	push	r13
     f4e:	ef 92       	push	r14
     f50:	ff 92       	push	r15
     f52:	0f 93       	push	r16
     f54:	1f 93       	push	r17
     f56:	cf 93       	push	r28
     f58:	df 93       	push	r29
     f5a:	ec 01       	movw	r28, r24
	if (!beeper->canBeep) {
     f5c:	89 81       	ldd	r24, Y+1	; 0x01
     f5e:	81 11       	cpse	r24, r1
     f60:	06 c0       	rjmp	.+12     	; 0xf6e <_Z14beepControllerP6Beeper+0x2c>
		digitalWrite(BEEPER, LOW);
     f62:	60 e0       	ldi	r22, 0x00	; 0
     f64:	81 e0       	ldi	r24, 0x01	; 1
     f66:	0e 94 5e 11 	call	0x22bc	; 0x22bc <digitalWrite>
		beeper->isPinActive = false;
     f6a:	1a 82       	std	Y+2, r1	; 0x02
		return;
     f6c:	93 c0       	rjmp	.+294    	; 0x1094 <_Z14beepControllerP6Beeper+0x152>
	}
	if (beeper->isCanInit) {
     f6e:	88 81       	ld	r24, Y
     f70:	88 23       	and	r24, r24
     f72:	39 f0       	breq	.+14     	; 0xf82 <_Z14beepControllerP6Beeper+0x40>
		beeper->isPinActive = true;
     f74:	81 e0       	ldi	r24, 0x01	; 1
     f76:	8a 83       	std	Y+2, r24	; 0x02
		beeper->count = beeper->initCount - 1;
     f78:	8c 81       	ldd	r24, Y+4	; 0x04
     f7a:	81 50       	subi	r24, 0x01	; 1
     f7c:	8b 83       	std	Y+3, r24	; 0x03
		beeper->isCanInit = false;
     f7e:	18 82       	st	Y, r1
     f80:	60 c0       	rjmp	.+192    	; 0x1042 <_Z14beepControllerP6Beeper+0x100>
		digitalWrite(BEEPER, HIGH);
		beeper->timeStamp = millis();
	} else {
		if (beeper->isPinActive) {
     f82:	8a 81       	ldd	r24, Y+2	; 0x02
     f84:	88 23       	and	r24, r24
     f86:	a1 f1       	breq	.+104    	; 0xff0 <_Z14beepControllerP6Beeper+0xae>
			if (millis() - beeper->timeStamp >= beeper->durationActive) {
     f88:	0e 94 8a 10 	call	0x2114	; 0x2114 <millis>
     f8c:	4b 01       	movw	r8, r22
     f8e:	5c 01       	movw	r10, r24
     f90:	9b 01       	movw	r18, r22
     f92:	a5 01       	movw	r20, r10
     f94:	60 e0       	ldi	r22, 0x00	; 0
     f96:	70 e0       	ldi	r23, 0x00	; 0
     f98:	80 e0       	ldi	r24, 0x00	; 0
     f9a:	90 e0       	ldi	r25, 0x00	; 0
     f9c:	ab 84       	ldd	r10, Y+11	; 0x0b
     f9e:	bc 84       	ldd	r11, Y+12	; 0x0c
     fa0:	cd 84       	ldd	r12, Y+13	; 0x0d
     fa2:	de 84       	ldd	r13, Y+14	; 0x0e
     fa4:	ef 84       	ldd	r14, Y+15	; 0x0f
     fa6:	f8 88       	ldd	r15, Y+16	; 0x10
     fa8:	09 89       	ldd	r16, Y+17	; 0x11
     faa:	1a 89       	ldd	r17, Y+18	; 0x12
     fac:	0e 94 f0 11 	call	0x23e0	; 0x23e0 <__subdi3>
     fb0:	be 80       	ldd	r11, Y+6	; 0x06
     fb2:	ad 80       	ldd	r10, Y+5	; 0x05
     fb4:	1b 2d       	mov	r17, r11
     fb6:	11 0f       	add	r17, r17
     fb8:	11 0b       	sbc	r17, r17
     fba:	c1 2e       	mov	r12, r17
     fbc:	d1 2e       	mov	r13, r17
     fbe:	e1 2e       	mov	r14, r17
     fc0:	f1 2e       	mov	r15, r17
     fc2:	01 2f       	mov	r16, r17
     fc4:	0e 94 f9 11 	call	0x23f2	; 0x23f2 <__cmpdi2>
     fc8:	08 f4       	brcc	.+2      	; 0xfcc <_Z14beepControllerP6Beeper+0x8a>
     fca:	64 c0       	rjmp	.+200    	; 0x1094 <_Z14beepControllerP6Beeper+0x152>
				beeper->isPinActive = false;
     fcc:	1a 82       	std	Y+2, r1	; 0x02
				digitalWrite(BEEPER, LOW);
     fce:	60 e0       	ldi	r22, 0x00	; 0
     fd0:	81 e0       	ldi	r24, 0x01	; 1
     fd2:	0e 94 5e 11 	call	0x22bc	; 0x22bc <digitalWrite>
				beeper->timeStamp = millis();
     fd6:	0e 94 8a 10 	call	0x2114	; 0x2114 <millis>
     fda:	4b 01       	movw	r8, r22
     fdc:	5c 01       	movw	r10, r24
     fde:	6b 87       	std	Y+11, r22	; 0x0b
     fe0:	9c 86       	std	Y+12, r9	; 0x0c
     fe2:	ad 86       	std	Y+13, r10	; 0x0d
     fe4:	be 86       	std	Y+14, r11	; 0x0e
     fe6:	1f 86       	std	Y+15, r1	; 0x0f
     fe8:	18 8a       	std	Y+16, r1	; 0x10
     fea:	19 8a       	std	Y+17, r1	; 0x11
     fec:	1a 8a       	std	Y+18, r1	; 0x12
     fee:	52 c0       	rjmp	.+164    	; 0x1094 <_Z14beepControllerP6Beeper+0x152>
			}
		} else {
			if (beeper->count > 0) {
     ff0:	8b 81       	ldd	r24, Y+3	; 0x03
     ff2:	88 23       	and	r24, r24
     ff4:	41 f1       	breq	.+80     	; 0x1046 <_Z14beepControllerP6Beeper+0x104>
				if (millis() - beeper->timeStamp >= beeper->durationInactive) {
     ff6:	0e 94 8a 10 	call	0x2114	; 0x2114 <millis>
     ffa:	4b 01       	movw	r8, r22
     ffc:	5c 01       	movw	r10, r24
     ffe:	9b 01       	movw	r18, r22
    1000:	a5 01       	movw	r20, r10
    1002:	60 e0       	ldi	r22, 0x00	; 0
    1004:	70 e0       	ldi	r23, 0x00	; 0
    1006:	80 e0       	ldi	r24, 0x00	; 0
    1008:	90 e0       	ldi	r25, 0x00	; 0
    100a:	ab 84       	ldd	r10, Y+11	; 0x0b
    100c:	bc 84       	ldd	r11, Y+12	; 0x0c
    100e:	cd 84       	ldd	r12, Y+13	; 0x0d
    1010:	de 84       	ldd	r13, Y+14	; 0x0e
    1012:	ef 84       	ldd	r14, Y+15	; 0x0f
    1014:	f8 88       	ldd	r15, Y+16	; 0x10
    1016:	09 89       	ldd	r16, Y+17	; 0x11
    1018:	1a 89       	ldd	r17, Y+18	; 0x12
    101a:	0e 94 f0 11 	call	0x23e0	; 0x23e0 <__subdi3>
    101e:	b8 84       	ldd	r11, Y+8	; 0x08
    1020:	af 80       	ldd	r10, Y+7	; 0x07
    1022:	1b 2d       	mov	r17, r11
    1024:	11 0f       	add	r17, r17
    1026:	11 0b       	sbc	r17, r17
    1028:	c1 2e       	mov	r12, r17
    102a:	d1 2e       	mov	r13, r17
    102c:	e1 2e       	mov	r14, r17
    102e:	f1 2e       	mov	r15, r17
    1030:	01 2f       	mov	r16, r17
    1032:	0e 94 f9 11 	call	0x23f2	; 0x23f2 <__cmpdi2>
    1036:	70 f1       	brcs	.+92     	; 0x1094 <_Z14beepControllerP6Beeper+0x152>
					beeper->isPinActive = true;
    1038:	81 e0       	ldi	r24, 0x01	; 1
    103a:	8a 83       	std	Y+2, r24	; 0x02
					beeper->count--;
    103c:	8b 81       	ldd	r24, Y+3	; 0x03
    103e:	81 50       	subi	r24, 0x01	; 1
    1040:	8b 83       	std	Y+3, r24	; 0x03
					digitalWrite(BEEPER, HIGH);
    1042:	61 e0       	ldi	r22, 0x01	; 1
    1044:	c5 cf       	rjmp	.-118    	; 0xfd0 <_Z14beepControllerP6Beeper+0x8e>
					beeper->timeStamp = millis();
				}
			} else if (beeper->timeOut != 0 && millis() - beeper->timeStamp >= beeper->timeOut){
    1046:	89 85       	ldd	r24, Y+9	; 0x09
    1048:	9a 85       	ldd	r25, Y+10	; 0x0a
    104a:	89 2b       	or	r24, r25
    104c:	19 f1       	breq	.+70     	; 0x1094 <_Z14beepControllerP6Beeper+0x152>
    104e:	0e 94 8a 10 	call	0x2114	; 0x2114 <millis>
    1052:	4b 01       	movw	r8, r22
    1054:	5c 01       	movw	r10, r24
    1056:	9b 01       	movw	r18, r22
    1058:	a5 01       	movw	r20, r10
    105a:	60 e0       	ldi	r22, 0x00	; 0
    105c:	70 e0       	ldi	r23, 0x00	; 0
    105e:	80 e0       	ldi	r24, 0x00	; 0
    1060:	90 e0       	ldi	r25, 0x00	; 0
    1062:	ab 84       	ldd	r10, Y+11	; 0x0b
    1064:	bc 84       	ldd	r11, Y+12	; 0x0c
    1066:	cd 84       	ldd	r12, Y+13	; 0x0d
    1068:	de 84       	ldd	r13, Y+14	; 0x0e
    106a:	ef 84       	ldd	r14, Y+15	; 0x0f
    106c:	f8 88       	ldd	r15, Y+16	; 0x10
    106e:	09 89       	ldd	r16, Y+17	; 0x11
    1070:	1a 89       	ldd	r17, Y+18	; 0x12
    1072:	0e 94 f0 11 	call	0x23e0	; 0x23e0 <__subdi3>
    1076:	ba 84       	ldd	r11, Y+10	; 0x0a
    1078:	a9 84       	ldd	r10, Y+9	; 0x09
    107a:	1b 2d       	mov	r17, r11
    107c:	11 0f       	add	r17, r17
    107e:	11 0b       	sbc	r17, r17
    1080:	c1 2e       	mov	r12, r17
    1082:	d1 2e       	mov	r13, r17
    1084:	e1 2e       	mov	r14, r17
    1086:	f1 2e       	mov	r15, r17
    1088:	01 2f       	mov	r16, r17
    108a:	0e 94 f9 11 	call	0x23f2	; 0x23f2 <__cmpdi2>
    108e:	10 f0       	brcs	.+4      	; 0x1094 <_Z14beepControllerP6Beeper+0x152>
				beeper->isCanInit = true;
    1090:	81 e0       	ldi	r24, 0x01	; 1
    1092:	88 83       	st	Y, r24
			}
		}
	}
    1094:	df 91       	pop	r29
    1096:	cf 91       	pop	r28
    1098:	1f 91       	pop	r17
    109a:	0f 91       	pop	r16
    109c:	ff 90       	pop	r15
    109e:	ef 90       	pop	r14
    10a0:	df 90       	pop	r13
    10a2:	cf 90       	pop	r12
    10a4:	bf 90       	pop	r11
    10a6:	af 90       	pop	r10
    10a8:	9f 90       	pop	r9
    10aa:	8f 90       	pop	r8
    10ac:	08 95       	ret

000010ae <loop>:
﻿#include "main.h"


void loop() {
	syncTime(false);
    10ae:	80 e0       	ldi	r24, 0x00	; 0
    10b0:	0e 94 27 05 	call	0xa4e	; 0xa4e <_Z8syncTimeb>
	buttonCallback.tick();
    10b4:	8b e7       	ldi	r24, 0x7B	; 123
    10b6:	91 e0       	ldi	r25, 0x01	; 1
    10b8:	0e 94 c6 0a 	call	0x158c	; 0x158c <_ZN9OneButton4tickEv>
	if (modeWork == mw_clock) {
    10bc:	90 91 50 01 	lds	r25, 0x0150	; 0x800150 <modeWork>
    10c0:	99 23       	and	r25, r25
    10c2:	b1 f0       	breq	.+44     	; 0x10f0 <loop+0x42>
			
	} else {
		if (returnTime == 0) {
    10c4:	80 91 53 01 	lds	r24, 0x0153	; 0x800153 <returnTime>
    10c8:	81 11       	cpse	r24, r1
    10ca:	07 c0       	rjmp	.+14     	; 0x10da <loop+0x2c>
			if (modeWork == mw_setBright) {
    10cc:	93 30       	cpi	r25, 0x03	; 3
    10ce:	81 f4       	brne	.+32     	; 0x10f0 <loop+0x42>
				setBrightDuration(bright.mode);
    10d0:	80 91 78 01 	lds	r24, 0x0178	; 0x800178 <bright>
    10d4:	0e 94 e3 01 	call	0x3c6	; 0x3c6 <_Z17setBrightDurationh>
    10d8:	0b c0       	rjmp	.+22     	; 0x10f0 <loop+0x42>
			}
		} else if (modeWork > mw_clock && prevSec != dateTime.Second) {
    10da:	90 91 a2 01 	lds	r25, 0x01A2	; 0x8001a2 <dateTime>
    10de:	20 91 52 01 	lds	r18, 0x0152	; 0x800152 <prevSec>
    10e2:	92 17       	cp	r25, r18
    10e4:	29 f0       	breq	.+10     	; 0x10f0 <loop+0x42>
			returnTime--;
    10e6:	81 50       	subi	r24, 0x01	; 1
    10e8:	80 93 53 01 	sts	0x0153, r24	; 0x800153 <returnTime>
			prevSec = dateTime.Second;
    10ec:	90 93 52 01 	sts	0x0152, r25	; 0x800152 <prevSec>
		}
	}
	tubeAsMode();
    10f0:	0e 94 fb 01 	call	0x3f6	; 0x3f6 <_Z10tubeAsModev>
	resetTubeMode();
    10f4:	0e 94 93 01 	call	0x326	; 0x326 <_Z13resetTubeModev>
	beepController(&test);
    10f8:	8c e3       	ldi	r24, 0x3C	; 60
    10fa:	91 e0       	ldi	r25, 0x01	; 1
    10fc:	0c 94 a1 07 	jmp	0xf42	; 0xf42 <_Z14beepControllerP6Beeper>

00001100 <_GLOBAL__sub_I_eeprom_init>:
unsigned long syncTimeStamp = 0;
DateTime dateTime;

//    
Button button;
OneButton buttonCallback(BUTTON, false);
    1100:	21 e0       	ldi	r18, 0x01	; 1
    1102:	40 e0       	ldi	r20, 0x00	; 0
    1104:	50 e0       	ldi	r21, 0x00	; 0
    1106:	63 e0       	ldi	r22, 0x03	; 3
    1108:	70 e0       	ldi	r23, 0x00	; 0
    110a:	8b e7       	ldi	r24, 0x7B	; 123
    110c:	91 e0       	ldi	r25, 0x01	; 1
    110e:	0c 94 a3 09 	jmp	0x1346	; 0x1346 <_ZN9OneButtonC1Eiib>

00001112 <_ZN9DS3231RTCC1Eb>:
    if (ret && clearOSF)                // clear OSF if it's set and the caller wants to clear it
    {
        writeRTC( RTC_STATUS, s & ~_BV(OSF) );
    }
    return ret;
}
    1112:	66 23       	and	r22, r22
    1114:	21 f0       	breq	.+8      	; 0x111e <_ZN9DS3231RTCC1Eb+0xc>
    1116:	8d e1       	ldi	r24, 0x1D	; 29
    1118:	92 e0       	ldi	r25, 0x02	; 2
    111a:	0c 94 da 0d 	jmp	0x1bb4	; 0x1bb4 <_ZN7TwoWire5beginEv>
    111e:	08 95       	ret

00001120 <_ZN9DS3231RTC7dec2bcdEh>:
    1120:	26 2f       	mov	r18, r22
    1122:	86 2f       	mov	r24, r22
    1124:	6a e0       	ldi	r22, 0x0A	; 10
    1126:	0e 94 b6 11 	call	0x236c	; 0x236c <__udivmodqi4>
    112a:	98 2f       	mov	r25, r24
    112c:	99 0f       	add	r25, r25
    112e:	89 0f       	add	r24, r25
    1130:	88 0f       	add	r24, r24
    1132:	82 0f       	add	r24, r18
    1134:	08 95       	ret

00001136 <_ZN9DS3231RTC7bcd2decEh>:
    1136:	98 2f       	mov	r25, r24
    1138:	92 95       	swap	r25
    113a:	9f 70       	andi	r25, 0x0F	; 15
    113c:	2a ef       	ldi	r18, 0xFA	; 250
    113e:	92 9f       	mul	r25, r18
    1140:	80 0d       	add	r24, r0
    1142:	11 24       	eor	r1, r1
    1144:	08 95       	ret

00001146 <_GLOBAL__sub_I__ZN9DS3231RTC7errCodeE>:
    1146:	8d e1       	ldi	r24, 0x1D	; 29
    1148:	92 e0       	ldi	r25, 0x02	; 2
    114a:	0c 94 da 0d 	jmp	0x1bb4	; 0x1bb4 <_ZN7TwoWire5beginEv>

0000114e <_ZN9DS3231RTC8writeRTCEhPhh>:
    114e:	ff 92       	push	r15
    1150:	0f 93       	push	r16
    1152:	1f 93       	push	r17
    1154:	cf 93       	push	r28
    1156:	df 93       	push	r29
    1158:	c6 2f       	mov	r28, r22
    115a:	f4 2e       	mov	r15, r20
    115c:	05 2f       	mov	r16, r21
    115e:	12 2f       	mov	r17, r18
    1160:	68 e6       	ldi	r22, 0x68	; 104
    1162:	70 e0       	ldi	r23, 0x00	; 0
    1164:	8d e1       	ldi	r24, 0x1D	; 29
    1166:	92 e0       	ldi	r25, 0x02	; 2
    1168:	0e 94 f6 0d 	call	0x1bec	; 0x1bec <_ZN7TwoWire17beginTransmissionEi>
    116c:	6c 2f       	mov	r22, r28
    116e:	8d e1       	ldi	r24, 0x1D	; 29
    1170:	92 e0       	ldi	r25, 0x02	; 2
    1172:	0e 94 9b 0d 	call	0x1b36	; 0x1b36 <_ZN7TwoWire5writeEh>
    1176:	cf 2d       	mov	r28, r15
    1178:	d0 2f       	mov	r29, r16
    117a:	ce 01       	movw	r24, r28
    117c:	81 0f       	add	r24, r17
    117e:	91 1d       	adc	r25, r1
    1180:	8c 01       	movw	r16, r24
    1182:	c0 17       	cp	r28, r16
    1184:	d1 07       	cpc	r29, r17
    1186:	31 f0       	breq	.+12     	; 0x1194 <_ZN9DS3231RTC8writeRTCEhPhh+0x46>
    1188:	69 91       	ld	r22, Y+
    118a:	8d e1       	ldi	r24, 0x1D	; 29
    118c:	92 e0       	ldi	r25, 0x02	; 2
    118e:	0e 94 9b 0d 	call	0x1b36	; 0x1b36 <_ZN7TwoWire5writeEh>
    1192:	f7 cf       	rjmp	.-18     	; 0x1182 <_ZN9DS3231RTC8writeRTCEhPhh+0x34>
    1194:	8d e1       	ldi	r24, 0x1D	; 29
    1196:	92 e0       	ldi	r25, 0x02	; 2
    1198:	df 91       	pop	r29
    119a:	cf 91       	pop	r28
    119c:	1f 91       	pop	r17
    119e:	0f 91       	pop	r16
    11a0:	ff 90       	pop	r15
    11a2:	0c 94 75 0e 	jmp	0x1cea	; 0x1cea <_ZN7TwoWire15endTransmissionEv>

000011a6 <_ZN9DS3231RTC8writeRTCEhh>:
    11a6:	cf 93       	push	r28
    11a8:	df 93       	push	r29
    11aa:	1f 92       	push	r1
    11ac:	cd b7       	in	r28, 0x3d	; 61
    11ae:	de b7       	in	r29, 0x3e	; 62
    11b0:	49 83       	std	Y+1, r20	; 0x01
    11b2:	21 e0       	ldi	r18, 0x01	; 1
    11b4:	ae 01       	movw	r20, r28
    11b6:	4f 5f       	subi	r20, 0xFF	; 255
    11b8:	5f 4f       	sbci	r21, 0xFF	; 255
    11ba:	0e 94 a7 08 	call	0x114e	; 0x114e <_ZN9DS3231RTC8writeRTCEhPhh>
    11be:	0f 90       	pop	r0
    11c0:	df 91       	pop	r29
    11c2:	cf 91       	pop	r28
    11c4:	08 95       	ret

000011c6 <_ZN9DS3231RTC4readER8DateTime>:
    11c6:	cf 93       	push	r28
    11c8:	df 93       	push	r29
    11ca:	ec 01       	movw	r28, r24
    11cc:	68 e6       	ldi	r22, 0x68	; 104
    11ce:	70 e0       	ldi	r23, 0x00	; 0
    11d0:	8d e1       	ldi	r24, 0x1D	; 29
    11d2:	92 e0       	ldi	r25, 0x02	; 2
    11d4:	0e 94 f6 0d 	call	0x1bec	; 0x1bec <_ZN7TwoWire17beginTransmissionEi>
    11d8:	60 e0       	ldi	r22, 0x00	; 0
    11da:	8d e1       	ldi	r24, 0x1D	; 29
    11dc:	92 e0       	ldi	r25, 0x02	; 2
    11de:	0e 94 9b 0d 	call	0x1b36	; 0x1b36 <_ZN7TwoWire5writeEh>
    11e2:	8d e1       	ldi	r24, 0x1D	; 29
    11e4:	92 e0       	ldi	r25, 0x02	; 2
    11e6:	0e 94 75 0e 	call	0x1cea	; 0x1cea <_ZN7TwoWire15endTransmissionEv>
    11ea:	88 23       	and	r24, r24
    11ec:	19 f0       	breq	.+6      	; 0x11f4 <_ZN9DS3231RTC4readER8DateTime+0x2e>
    11ee:	80 93 ae 01 	sts	0x01AE, r24	; 0x8001ae <_ZN9DS3231RTC7errCodeE>
    11f2:	3b c0       	rjmp	.+118    	; 0x126a <_ZN9DS3231RTC4readER8DateTime+0xa4>
    11f4:	47 e0       	ldi	r20, 0x07	; 7
    11f6:	50 e0       	ldi	r21, 0x00	; 0
    11f8:	68 e6       	ldi	r22, 0x68	; 104
    11fa:	70 e0       	ldi	r23, 0x00	; 0
    11fc:	8d e1       	ldi	r24, 0x1D	; 29
    11fe:	92 e0       	ldi	r25, 0x02	; 2
    1200:	0e 94 72 0e 	call	0x1ce4	; 0x1ce4 <_ZN7TwoWire11requestFromEii>
    1204:	8d e1       	ldi	r24, 0x1D	; 29
    1206:	92 e0       	ldi	r25, 0x02	; 2
    1208:	0e 94 14 0d 	call	0x1a28	; 0x1a28 <_ZN7TwoWire4readEv>
    120c:	8f 77       	andi	r24, 0x7F	; 127
    120e:	0e 94 9b 08 	call	0x1136	; 0x1136 <_ZN9DS3231RTC7bcd2decEh>
    1212:	88 83       	st	Y, r24
    1214:	8d e1       	ldi	r24, 0x1D	; 29
    1216:	92 e0       	ldi	r25, 0x02	; 2
    1218:	0e 94 14 0d 	call	0x1a28	; 0x1a28 <_ZN7TwoWire4readEv>
    121c:	0e 94 9b 08 	call	0x1136	; 0x1136 <_ZN9DS3231RTC7bcd2decEh>
    1220:	89 83       	std	Y+1, r24	; 0x01
    1222:	8d e1       	ldi	r24, 0x1D	; 29
    1224:	92 e0       	ldi	r25, 0x02	; 2
    1226:	0e 94 14 0d 	call	0x1a28	; 0x1a28 <_ZN7TwoWire4readEv>
    122a:	8f 7b       	andi	r24, 0xBF	; 191
    122c:	0e 94 9b 08 	call	0x1136	; 0x1136 <_ZN9DS3231RTC7bcd2decEh>
    1230:	8a 83       	std	Y+2, r24	; 0x02
    1232:	8d e1       	ldi	r24, 0x1D	; 29
    1234:	92 e0       	ldi	r25, 0x02	; 2
    1236:	0e 94 14 0d 	call	0x1a28	; 0x1a28 <_ZN7TwoWire4readEv>
    123a:	8b 83       	std	Y+3, r24	; 0x03
    123c:	8d e1       	ldi	r24, 0x1D	; 29
    123e:	92 e0       	ldi	r25, 0x02	; 2
    1240:	0e 94 14 0d 	call	0x1a28	; 0x1a28 <_ZN7TwoWire4readEv>
    1244:	0e 94 9b 08 	call	0x1136	; 0x1136 <_ZN9DS3231RTC7bcd2decEh>
    1248:	8c 83       	std	Y+4, r24	; 0x04
    124a:	8d e1       	ldi	r24, 0x1D	; 29
    124c:	92 e0       	ldi	r25, 0x02	; 2
    124e:	0e 94 14 0d 	call	0x1a28	; 0x1a28 <_ZN7TwoWire4readEv>
    1252:	8f 77       	andi	r24, 0x7F	; 127
    1254:	0e 94 9b 08 	call	0x1136	; 0x1136 <_ZN9DS3231RTC7bcd2decEh>
    1258:	8d 83       	std	Y+5, r24	; 0x05
    125a:	8d e1       	ldi	r24, 0x1D	; 29
    125c:	92 e0       	ldi	r25, 0x02	; 2
    125e:	0e 94 14 0d 	call	0x1a28	; 0x1a28 <_ZN7TwoWire4readEv>
    1262:	0e 94 9b 08 	call	0x1136	; 0x1136 <_ZN9DS3231RTC7bcd2decEh>
    1266:	8e 83       	std	Y+6, r24	; 0x06
    1268:	80 e0       	ldi	r24, 0x00	; 0
    126a:	df 91       	pop	r29
    126c:	cf 91       	pop	r28
    126e:	08 95       	ret

00001270 <_ZN9DS3231RTC7readRTCEhPhh>:
    1270:	ff 92       	push	r15
    1272:	0f 93       	push	r16
    1274:	1f 93       	push	r17
    1276:	cf 93       	push	r28
    1278:	df 93       	push	r29
    127a:	c6 2f       	mov	r28, r22
    127c:	f4 2e       	mov	r15, r20
    127e:	05 2f       	mov	r16, r21
    1280:	12 2f       	mov	r17, r18
    1282:	68 e6       	ldi	r22, 0x68	; 104
    1284:	70 e0       	ldi	r23, 0x00	; 0
    1286:	8d e1       	ldi	r24, 0x1D	; 29
    1288:	92 e0       	ldi	r25, 0x02	; 2
    128a:	0e 94 f6 0d 	call	0x1bec	; 0x1bec <_ZN7TwoWire17beginTransmissionEi>
    128e:	6c 2f       	mov	r22, r28
    1290:	8d e1       	ldi	r24, 0x1D	; 29
    1292:	92 e0       	ldi	r25, 0x02	; 2
    1294:	0e 94 9b 0d 	call	0x1b36	; 0x1b36 <_ZN7TwoWire5writeEh>
    1298:	8d e1       	ldi	r24, 0x1D	; 29
    129a:	92 e0       	ldi	r25, 0x02	; 2
    129c:	0e 94 75 0e 	call	0x1cea	; 0x1cea <_ZN7TwoWire15endTransmissionEv>
    12a0:	81 11       	cpse	r24, r1
    12a2:	16 c0       	rjmp	.+44     	; 0x12d0 <_ZN9DS3231RTC7readRTCEhPhh+0x60>
    12a4:	41 2f       	mov	r20, r17
    12a6:	68 e6       	ldi	r22, 0x68	; 104
    12a8:	8d e1       	ldi	r24, 0x1D	; 29
    12aa:	92 e0       	ldi	r25, 0x02	; 2
    12ac:	0e 94 6f 0e 	call	0x1cde	; 0x1cde <_ZN7TwoWire11requestFromEhh>
    12b0:	cf 2d       	mov	r28, r15
    12b2:	d0 2f       	mov	r29, r16
    12b4:	ce 01       	movw	r24, r28
    12b6:	81 0f       	add	r24, r17
    12b8:	91 1d       	adc	r25, r1
    12ba:	8c 01       	movw	r16, r24
    12bc:	c0 17       	cp	r28, r16
    12be:	d1 07       	cpc	r29, r17
    12c0:	31 f0       	breq	.+12     	; 0x12ce <_ZN9DS3231RTC7readRTCEhPhh+0x5e>
    12c2:	8d e1       	ldi	r24, 0x1D	; 29
    12c4:	92 e0       	ldi	r25, 0x02	; 2
    12c6:	0e 94 14 0d 	call	0x1a28	; 0x1a28 <_ZN7TwoWire4readEv>
    12ca:	89 93       	st	Y+, r24
    12cc:	f7 cf       	rjmp	.-18     	; 0x12bc <_ZN9DS3231RTC7readRTCEhPhh+0x4c>
    12ce:	80 e0       	ldi	r24, 0x00	; 0
    12d0:	df 91       	pop	r29
    12d2:	cf 91       	pop	r28
    12d4:	1f 91       	pop	r17
    12d6:	0f 91       	pop	r16
    12d8:	ff 90       	pop	r15
    12da:	08 95       	ret

000012dc <_ZN9DS3231RTC7readRTCEh>:
    12dc:	cf 93       	push	r28
    12de:	df 93       	push	r29
    12e0:	1f 92       	push	r1
    12e2:	cd b7       	in	r28, 0x3d	; 61
    12e4:	de b7       	in	r29, 0x3e	; 62
    12e6:	21 e0       	ldi	r18, 0x01	; 1
    12e8:	ae 01       	movw	r20, r28
    12ea:	4f 5f       	subi	r20, 0xFF	; 255
    12ec:	5f 4f       	sbci	r21, 0xFF	; 255
    12ee:	0e 94 38 09 	call	0x1270	; 0x1270 <_ZN9DS3231RTC7readRTCEhPhh>
    12f2:	89 81       	ldd	r24, Y+1	; 0x01
    12f4:	0f 90       	pop	r0
    12f6:	df 91       	pop	r29
    12f8:	cf 91       	pop	r28
    12fa:	08 95       	ret

000012fc <_ZN9DS3231RTC11temperatureEv>:

// Returns the temperature in Celsius times four.
int DS3231RTC::temperature()
{
    12fc:	1f 93       	push	r17
    12fe:	cf 93       	push	r28
    1300:	df 93       	push	r29
    1302:	ec 01       	movw	r28, r24
    union int16_byte {
        int i;
        byte b[2];
    } rtcTemp;

    rtcTemp.b[0] = readRTC(RTC_TEMP_LSB);
    1304:	62 e1       	ldi	r22, 0x12	; 18
    1306:	0e 94 6e 09 	call	0x12dc	; 0x12dc <_ZN9DS3231RTC7readRTCEh>
    130a:	18 2f       	mov	r17, r24
    rtcTemp.b[1] = readRTC(RTC_TEMP_MSB);
    130c:	61 e1       	ldi	r22, 0x11	; 17
    130e:	ce 01       	movw	r24, r28
    1310:	0e 94 6e 09 	call	0x12dc	; 0x12dc <_ZN9DS3231RTC7readRTCEh>
    return rtcTemp.i / 64;
    1314:	21 2f       	mov	r18, r17
    1316:	38 2f       	mov	r19, r24
    1318:	37 ff       	sbrs	r19, 7
    131a:	02 c0       	rjmp	.+4      	; 0x1320 <_ZN9DS3231RTC11temperatureEv+0x24>
    131c:	21 5c       	subi	r18, 0xC1	; 193
    131e:	3f 4f       	sbci	r19, 0xFF	; 255
}
    1320:	c9 01       	movw	r24, r18
    1322:	26 e0       	ldi	r18, 0x06	; 6
    1324:	95 95       	asr	r25
    1326:	87 95       	ror	r24
    1328:	2a 95       	dec	r18
    132a:	e1 f7       	brne	.-8      	; 0x1324 <_ZN9DS3231RTC11temperatureEv+0x28>
    132c:	df 91       	pop	r29
    132e:	cf 91       	pop	r28
    1330:	1f 91       	pop	r17
    1332:	08 95       	ret

00001334 <_ZN9DS3231RTC12temperatureCEv>:


int DS3231RTC::temperatureC()
{
	return DS3231RTC::temperature() / 4;
    1334:	0e 94 7e 09 	call	0x12fc	; 0x12fc <_ZN9DS3231RTC11temperatureEv>
    1338:	97 fd       	sbrc	r25, 7
    133a:	03 96       	adiw	r24, 0x03	; 3
}
    133c:	95 95       	asr	r25
    133e:	87 95       	ror	r24
    1340:	95 95       	asr	r25
    1342:	87 95       	ror	r24
    1344:	08 95       	ret

00001346 <_ZN9OneButtonC1Eiib>:

void OneButton::reset(void){
  _state = 0; // restart.
  _startTime = 0;
  _stopTime = 0;
  _isLongPressed = false;
    1346:	fc 01       	movw	r30, r24
    1348:	86 2f       	mov	r24, r22
    134a:	a2 e3       	ldi	r26, 0x32	; 50
    134c:	b0 e0       	ldi	r27, 0x00	; 0
    134e:	b3 83       	std	Z+3, r27	; 0x03
    1350:	a2 83       	std	Z+2, r26	; 0x02
    1352:	a8 e5       	ldi	r26, 0x58	; 88
    1354:	b2 e0       	ldi	r27, 0x02	; 2
    1356:	b5 83       	std	Z+5, r27	; 0x05
    1358:	a4 83       	std	Z+4, r26	; 0x04
    135a:	a8 ee       	ldi	r26, 0xE8	; 232
    135c:	b3 e0       	ldi	r27, 0x03	; 3
    135e:	b7 83       	std	Z+7, r27	; 0x07
    1360:	a6 83       	std	Z+6, r26	; 0x06
    1362:	12 86       	std	Z+10, r1	; 0x0a
    1364:	14 86       	std	Z+12, r1	; 0x0c
    1366:	13 86       	std	Z+11, r1	; 0x0b
    1368:	16 86       	std	Z+14, r1	; 0x0e
    136a:	15 86       	std	Z+13, r1	; 0x0d
    136c:	10 8a       	std	Z+16, r1	; 0x10
    136e:	17 86       	std	Z+15, r1	; 0x0f
    1370:	12 8a       	std	Z+18, r1	; 0x12
    1372:	11 8a       	std	Z+17, r1	; 0x11
    1374:	14 8a       	std	Z+20, r1	; 0x14
    1376:	13 8a       	std	Z+19, r1	; 0x13
    1378:	16 8a       	std	Z+22, r1	; 0x16
    137a:	15 8a       	std	Z+21, r1	; 0x15
    137c:	10 8e       	std	Z+24, r1	; 0x18
    137e:	17 8a       	std	Z+23, r1	; 0x17
    1380:	60 83       	st	Z, r22
    1382:	71 83       	std	Z+1, r23	; 0x01
    1384:	45 2b       	or	r20, r21
    1386:	19 f0       	breq	.+6      	; 0x138e <_ZN9OneButtonC1Eiib+0x48>
    1388:	11 86       	std	Z+9, r1	; 0x09
    138a:	10 86       	std	Z+8, r1	; 0x08
    138c:	04 c0       	rjmp	.+8      	; 0x1396 <_ZN9OneButtonC1Eiib+0x50>
    138e:	41 e0       	ldi	r20, 0x01	; 1
    1390:	50 e0       	ldi	r21, 0x00	; 0
    1392:	51 87       	std	Z+9, r21	; 0x09
    1394:	40 87       	std	Z+8, r20	; 0x08
    1396:	22 23       	and	r18, r18
    1398:	11 f0       	breq	.+4      	; 0x139e <_ZN9OneButtonC1Eiib+0x58>
    139a:	62 e0       	ldi	r22, 0x02	; 2
    139c:	01 c0       	rjmp	.+2      	; 0x13a0 <_ZN9OneButtonC1Eiib+0x5a>
    139e:	60 e0       	ldi	r22, 0x00	; 0
    13a0:	0c 94 22 11 	jmp	0x2244	; 0x2244 <pinMode>

000013a4 <_ZN9OneButton16setDebounceTicksEi>:
    13a4:	fc 01       	movw	r30, r24
    13a6:	73 83       	std	Z+3, r23	; 0x03
    13a8:	62 83       	std	Z+2, r22	; 0x02
    13aa:	08 95       	ret

000013ac <_ZN9OneButton13setClickTicksEi>:
    13ac:	fc 01       	movw	r30, r24
    13ae:	75 83       	std	Z+5, r23	; 0x05
    13b0:	64 83       	std	Z+4, r22	; 0x04
    13b2:	08 95       	ret

000013b4 <_ZN9OneButton13setPressTicksEi>:
    13b4:	fc 01       	movw	r30, r24
    13b6:	77 83       	std	Z+7, r23	; 0x07
    13b8:	66 83       	std	Z+6, r22	; 0x06
    13ba:	08 95       	ret

000013bc <_ZN9OneButton11attachClickEPFvvE>:
    13bc:	fc 01       	movw	r30, r24
    13be:	74 87       	std	Z+12, r23	; 0x0c
    13c0:	63 87       	std	Z+11, r22	; 0x0b
    13c2:	08 95       	ret

000013c4 <_ZN9OneButton17attachDoubleClickEPFvvE>:
    13c4:	fc 01       	movw	r30, r24
    13c6:	76 87       	std	Z+14, r23	; 0x0e
    13c8:	65 87       	std	Z+13, r22	; 0x0d
    13ca:	08 95       	ret

000013cc <_ZN9OneButton20attachLongPressStartEPFvvE>:
    13cc:	fc 01       	movw	r30, r24
    13ce:	72 8b       	std	Z+18, r23	; 0x12
    13d0:	61 8b       	std	Z+17, r22	; 0x11
    13d2:	08 95       	ret

000013d4 <_ZN9OneButton21attachDuringLongPressEPFvvE>:
    13d4:	fc 01       	movw	r30, r24
    13d6:	76 8b       	std	Z+22, r23	; 0x16
    13d8:	65 8b       	std	Z+21, r22	; 0x15
    13da:	08 95       	ret

000013dc <_ZN9OneButton4tickEb>:

/**
 * @brief Advance the finite state machine (FSM) using the given level.
 */
void OneButton::tick(bool activeLevel)
{
    13dc:	cf 92       	push	r12
    13de:	df 92       	push	r13
    13e0:	ef 92       	push	r14
    13e2:	ff 92       	push	r15
    13e4:	1f 93       	push	r17
    13e6:	cf 93       	push	r28
    13e8:	df 93       	push	r29
    13ea:	ec 01       	movw	r28, r24
    13ec:	16 2f       	mov	r17, r22
  unsigned long now = millis(); // current (relative) time in msecs.
    13ee:	0e 94 8a 10 	call	0x2114	; 0x2114 <millis>
    13f2:	6b 01       	movw	r12, r22
    13f4:	7c 01       	movw	r14, r24

  // Implementation of the state machine

  if (_state == 0) { // waiting for menu pin being pressed.
    13f6:	8f 89       	ldd	r24, Y+23	; 0x17
    13f8:	98 8d       	ldd	r25, Y+24	; 0x18
    13fa:	00 97       	sbiw	r24, 0x00	; 0
    13fc:	31 f4       	brne	.+12     	; 0x140a <_ZN9OneButton4tickEb+0x2e>
    if (activeLevel) {
    13fe:	11 23       	and	r17, r17
    1400:	09 f4       	brne	.+2      	; 0x1404 <_ZN9OneButton4tickEb+0x28>
    1402:	bc c0       	rjmp	.+376    	; 0x157c <_ZN9OneButton4tickEb+0x1a0>
      _state = 1; // step to state 1
    1404:	81 e0       	ldi	r24, 0x01	; 1
    1406:	90 e0       	ldi	r25, 0x00	; 0
    1408:	78 c0       	rjmp	.+240    	; 0x14fa <_ZN9OneButton4tickEb+0x11e>
      _startTime = now; // remember starting time
    } // if

  } else if (_state == 1) { // waiting for menu pin being released.
    140a:	81 30       	cpi	r24, 0x01	; 1
    140c:	91 05       	cpc	r25, r1
    140e:	d9 f5       	brne	.+118    	; 0x1486 <_ZN9OneButton4tickEb+0xaa>
    1410:	89 8d       	ldd	r24, Y+25	; 0x19
    1412:	9a 8d       	ldd	r25, Y+26	; 0x1a
    1414:	ab 8d       	ldd	r26, Y+27	; 0x1b
    1416:	bc 8d       	ldd	r27, Y+28	; 0x1c

    if ((!activeLevel) &&
    1418:	b7 01       	movw	r22, r14
    141a:	a6 01       	movw	r20, r12
    141c:	48 1b       	sub	r20, r24
    141e:	59 0b       	sbc	r21, r25
    1420:	6a 0b       	sbc	r22, r26
    1422:	7b 0b       	sbc	r23, r27
    1424:	11 11       	cpse	r17, r1
    1426:	0f c0       	rjmp	.+30     	; 0x1446 <_ZN9OneButton4tickEb+0x6a>
    1428:	8a 81       	ldd	r24, Y+2	; 0x02
    142a:	9b 81       	ldd	r25, Y+3	; 0x03
    142c:	a0 e0       	ldi	r26, 0x00	; 0
    142e:	b0 e0       	ldi	r27, 0x00	; 0
    1430:	48 17       	cp	r20, r24
    1432:	59 07       	cpc	r21, r25
    1434:	6a 07       	cpc	r22, r26
    1436:	7b 07       	cpc	r23, r27
    1438:	18 f4       	brcc	.+6      	; 0x1440 <_ZN9OneButton4tickEb+0x64>
        ((unsigned long)(now - _startTime) < _debounceTicks)) {
      // button was released to quickly so I assume some debouncing.
      // go back to state 0 without calling a function.
      _state = 0;
    143a:	18 8e       	std	Y+24, r1	; 0x18
    143c:	1f 8a       	std	Y+23, r1	; 0x17
    143e:	9e c0       	rjmp	.+316    	; 0x157c <_ZN9OneButton4tickEb+0x1a0>

    } else if (!activeLevel) {
      _state = 2; // step to state 2
    1440:	82 e0       	ldi	r24, 0x02	; 2
    1442:	90 e0       	ldi	r25, 0x00	; 0
    1444:	1d c0       	rjmp	.+58     	; 0x1480 <_ZN9OneButton4tickEb+0xa4>
      _stopTime = now; // remember stopping time

    } else if ((activeLevel) &&
    1446:	8e 81       	ldd	r24, Y+6	; 0x06
    1448:	9f 81       	ldd	r25, Y+7	; 0x07
    144a:	a0 e0       	ldi	r26, 0x00	; 0
    144c:	b0 e0       	ldi	r27, 0x00	; 0
    144e:	84 17       	cp	r24, r20
    1450:	95 07       	cpc	r25, r21
    1452:	a6 07       	cpc	r26, r22
    1454:	b7 07       	cpc	r27, r23
    1456:	08 f0       	brcs	.+2      	; 0x145a <_ZN9OneButton4tickEb+0x7e>
    1458:	91 c0       	rjmp	.+290    	; 0x157c <_ZN9OneButton4tickEb+0x1a0>
               ((unsigned long)(now - _startTime) > _pressTicks)) {
      _isLongPressed = true; // Keep track of long press state
    145a:	81 e0       	ldi	r24, 0x01	; 1
    145c:	8a 87       	std	Y+10, r24	; 0x0a
      if (_pressFunc)
    145e:	ef 85       	ldd	r30, Y+15	; 0x0f
    1460:	f8 89       	ldd	r31, Y+16	; 0x10
    1462:	30 97       	sbiw	r30, 0x00	; 0
    1464:	09 f0       	breq	.+2      	; 0x1468 <_ZN9OneButton4tickEb+0x8c>
        _pressFunc();
    1466:	09 95       	icall
      if (_longPressStartFunc)
    1468:	e9 89       	ldd	r30, Y+17	; 0x11
    146a:	fa 89       	ldd	r31, Y+18	; 0x12
    146c:	30 97       	sbiw	r30, 0x00	; 0
    146e:	09 f0       	breq	.+2      	; 0x1472 <_ZN9OneButton4tickEb+0x96>
        _longPressStartFunc();
    1470:	09 95       	icall
      if (_duringLongPressFunc)
    1472:	ed 89       	ldd	r30, Y+21	; 0x15
    1474:	fe 89       	ldd	r31, Y+22	; 0x16
    1476:	30 97       	sbiw	r30, 0x00	; 0
    1478:	09 f0       	breq	.+2      	; 0x147c <_ZN9OneButton4tickEb+0xa0>
        _duringLongPressFunc();
    147a:	09 95       	icall
      _state = 6; // step to state 6
    147c:	86 e0       	ldi	r24, 0x06	; 6
    147e:	90 e0       	ldi	r25, 0x00	; 0
    1480:	98 8f       	std	Y+24, r25	; 0x18
    1482:	8f 8b       	std	Y+23, r24	; 0x17
    1484:	68 c0       	rjmp	.+208    	; 0x1556 <_ZN9OneButton4tickEb+0x17a>
      _stopTime = now; // remember stopping time
    } else {
      // wait. Stay in this state.
    } // if

  } else if (_state == 2) {
    1486:	82 30       	cpi	r24, 0x02	; 2
    1488:	91 05       	cpc	r25, r1
    148a:	f1 f5       	brne	.+124    	; 0x1508 <_ZN9OneButton4tickEb+0x12c>
    // waiting for menu pin being pressed the second time or timeout.
    if (_doubleClickFunc == NULL ||
    148c:	8d 85       	ldd	r24, Y+13	; 0x0d
    148e:	9e 85       	ldd	r25, Y+14	; 0x0e
    1490:	89 2b       	or	r24, r25
    1492:	99 f0       	breq	.+38     	; 0x14ba <_ZN9OneButton4tickEb+0xde>
    1494:	89 8d       	ldd	r24, Y+25	; 0x19
    1496:	9a 8d       	ldd	r25, Y+26	; 0x1a
    1498:	ab 8d       	ldd	r26, Y+27	; 0x1b
    149a:	bc 8d       	ldd	r27, Y+28	; 0x1c
    149c:	b7 01       	movw	r22, r14
    149e:	a6 01       	movw	r20, r12
    14a0:	48 1b       	sub	r20, r24
    14a2:	59 0b       	sbc	r21, r25
    14a4:	6a 0b       	sbc	r22, r26
    14a6:	7b 0b       	sbc	r23, r27
    14a8:	8c 81       	ldd	r24, Y+4	; 0x04
    14aa:	9d 81       	ldd	r25, Y+5	; 0x05
    14ac:	a0 e0       	ldi	r26, 0x00	; 0
    14ae:	b0 e0       	ldi	r27, 0x00	; 0
    14b0:	84 17       	cp	r24, r20
    14b2:	95 07       	cpc	r25, r21
    14b4:	a6 07       	cpc	r26, r22
    14b6:	b7 07       	cpc	r27, r23
    14b8:	38 f4       	brcc	.+14     	; 0x14c8 <_ZN9OneButton4tickEb+0xec>
        (unsigned long)(now - _startTime) > _clickTicks) {
      // this was only a single short click
      if (_clickFunc)
    14ba:	eb 85       	ldd	r30, Y+11	; 0x0b
    14bc:	fc 85       	ldd	r31, Y+12	; 0x0c
    14be:	30 97       	sbiw	r30, 0x00	; 0
    14c0:	09 f4       	brne	.+2      	; 0x14c4 <_ZN9OneButton4tickEb+0xe8>
    14c2:	bb cf       	rjmp	.-138    	; 0x143a <_ZN9OneButton4tickEb+0x5e>
        _clickFunc();
    14c4:	09 95       	icall
    14c6:	b9 cf       	rjmp	.-142    	; 0x143a <_ZN9OneButton4tickEb+0x5e>
      _state = 0; // restart.

    } else if ((activeLevel) &&
    14c8:	11 23       	and	r17, r17
    14ca:	09 f4       	brne	.+2      	; 0x14ce <_ZN9OneButton4tickEb+0xf2>
    14cc:	57 c0       	rjmp	.+174    	; 0x157c <_ZN9OneButton4tickEb+0x1a0>
    14ce:	8d 8d       	ldd	r24, Y+29	; 0x1d
    14d0:	9e 8d       	ldd	r25, Y+30	; 0x1e
    14d2:	af 8d       	ldd	r26, Y+31	; 0x1f
    14d4:	b8 a1       	ldd	r27, Y+32	; 0x20
    14d6:	b7 01       	movw	r22, r14
    14d8:	a6 01       	movw	r20, r12
    14da:	48 1b       	sub	r20, r24
    14dc:	59 0b       	sbc	r21, r25
    14de:	6a 0b       	sbc	r22, r26
    14e0:	7b 0b       	sbc	r23, r27
    14e2:	8a 81       	ldd	r24, Y+2	; 0x02
    14e4:	9b 81       	ldd	r25, Y+3	; 0x03
    14e6:	a0 e0       	ldi	r26, 0x00	; 0
    14e8:	b0 e0       	ldi	r27, 0x00	; 0
    14ea:	84 17       	cp	r24, r20
    14ec:	95 07       	cpc	r25, r21
    14ee:	a6 07       	cpc	r26, r22
    14f0:	b7 07       	cpc	r27, r23
    14f2:	08 f0       	brcs	.+2      	; 0x14f6 <_ZN9OneButton4tickEb+0x11a>
    14f4:	43 c0       	rjmp	.+134    	; 0x157c <_ZN9OneButton4tickEb+0x1a0>
               ((unsigned long)(now - _stopTime) > _debounceTicks)) {
      _state = 3; // step to state 3
    14f6:	83 e0       	ldi	r24, 0x03	; 3
    14f8:	90 e0       	ldi	r25, 0x00	; 0
    14fa:	98 8f       	std	Y+24, r25	; 0x18
    14fc:	8f 8b       	std	Y+23, r24	; 0x17
      _startTime = now; // remember starting time
    14fe:	c9 8e       	std	Y+25, r12	; 0x19
    1500:	da 8e       	std	Y+26, r13	; 0x1a
    1502:	eb 8e       	std	Y+27, r14	; 0x1b
    1504:	fc 8e       	std	Y+28, r15	; 0x1c
    1506:	3a c0       	rjmp	.+116    	; 0x157c <_ZN9OneButton4tickEb+0x1a0>
    } // if

  } else if (_state == 3) { // waiting for menu pin being released finally.
    1508:	83 30       	cpi	r24, 0x03	; 3
    150a:	91 05       	cpc	r25, r1
    150c:	c1 f4       	brne	.+48     	; 0x153e <_ZN9OneButton4tickEb+0x162>
    // Stay here for at least _debounceTicks because else we might end up in
    // state 1 if the button bounces for too long.
    if ((!activeLevel) &&
    150e:	11 11       	cpse	r17, r1
    1510:	35 c0       	rjmp	.+106    	; 0x157c <_ZN9OneButton4tickEb+0x1a0>
    1512:	89 8d       	ldd	r24, Y+25	; 0x19
    1514:	9a 8d       	ldd	r25, Y+26	; 0x1a
    1516:	ab 8d       	ldd	r26, Y+27	; 0x1b
    1518:	bc 8d       	ldd	r27, Y+28	; 0x1c
    151a:	b7 01       	movw	r22, r14
    151c:	a6 01       	movw	r20, r12
    151e:	48 1b       	sub	r20, r24
    1520:	59 0b       	sbc	r21, r25
    1522:	6a 0b       	sbc	r22, r26
    1524:	7b 0b       	sbc	r23, r27
    1526:	8a 81       	ldd	r24, Y+2	; 0x02
    1528:	9b 81       	ldd	r25, Y+3	; 0x03
    152a:	a0 e0       	ldi	r26, 0x00	; 0
    152c:	b0 e0       	ldi	r27, 0x00	; 0
    152e:	84 17       	cp	r24, r20
    1530:	95 07       	cpc	r25, r21
    1532:	a6 07       	cpc	r26, r22
    1534:	b7 07       	cpc	r27, r23
    1536:	10 f5       	brcc	.+68     	; 0x157c <_ZN9OneButton4tickEb+0x1a0>
        ((unsigned long)(now - _startTime) > _debounceTicks)) {
      // this was a 2 click sequence.
      if (_doubleClickFunc)
    1538:	ed 85       	ldd	r30, Y+13	; 0x0d
    153a:	fe 85       	ldd	r31, Y+14	; 0x0e
    153c:	07 c0       	rjmp	.+14     	; 0x154c <_ZN9OneButton4tickEb+0x170>
        _doubleClickFunc();
      _state = 0; // restart.
      _stopTime = now; // remember stopping time
    } // if

  } else if (_state == 6) {
    153e:	06 97       	sbiw	r24, 0x06	; 6
    1540:	e9 f4       	brne	.+58     	; 0x157c <_ZN9OneButton4tickEb+0x1a0>
    // waiting for menu pin being release after long press.
    if (!activeLevel) {
    1542:	11 11       	cpse	r17, r1
    1544:	0d c0       	rjmp	.+26     	; 0x1560 <_ZN9OneButton4tickEb+0x184>
      _isLongPressed = false; // Keep track of long press state
    1546:	1a 86       	std	Y+10, r1	; 0x0a
      if (_longPressStopFunc)
    1548:	eb 89       	ldd	r30, Y+19	; 0x13
    154a:	fc 89       	ldd	r31, Y+20	; 0x14
    154c:	30 97       	sbiw	r30, 0x00	; 0
    154e:	09 f0       	breq	.+2      	; 0x1552 <_ZN9OneButton4tickEb+0x176>
        _longPressStopFunc();
    1550:	09 95       	icall
      _state = 0; // restart.
    1552:	18 8e       	std	Y+24, r1	; 0x18
    1554:	1f 8a       	std	Y+23, r1	; 0x17
      _stopTime = now; // remember stopping time
    1556:	cd 8e       	std	Y+29, r12	; 0x1d
    1558:	de 8e       	std	Y+30, r13	; 0x1e
    155a:	ef 8e       	std	Y+31, r14	; 0x1f
    155c:	f8 a2       	std	Y+32, r15	; 0x20
    155e:	0e c0       	rjmp	.+28     	; 0x157c <_ZN9OneButton4tickEb+0x1a0>
    } else {
      // button is being long pressed
      _isLongPressed = true; // Keep track of long press state
    1560:	81 e0       	ldi	r24, 0x01	; 1
    1562:	8a 87       	std	Y+10, r24	; 0x0a
      if (_duringLongPressFunc)
    1564:	ed 89       	ldd	r30, Y+21	; 0x15
    1566:	fe 89       	ldd	r31, Y+22	; 0x16
    1568:	30 97       	sbiw	r30, 0x00	; 0
    156a:	41 f0       	breq	.+16     	; 0x157c <_ZN9OneButton4tickEb+0x1a0>
        _duringLongPressFunc();
    } // if

  } // if
} // OneButton.tick()
    156c:	df 91       	pop	r29
    156e:	cf 91       	pop	r28
    1570:	1f 91       	pop	r17
    1572:	ff 90       	pop	r15
    1574:	ef 90       	pop	r14
    1576:	df 90       	pop	r13
    1578:	cf 90       	pop	r12
      _stopTime = now; // remember stopping time
    } else {
      // button is being long pressed
      _isLongPressed = true; // Keep track of long press state
      if (_duringLongPressFunc)
        _duringLongPressFunc();
    157a:	09 94       	ijmp
    } // if

  } // if
} // OneButton.tick()
    157c:	df 91       	pop	r29
    157e:	cf 91       	pop	r28
    1580:	1f 91       	pop	r17
    1582:	ff 90       	pop	r15
    1584:	ef 90       	pop	r14
    1586:	df 90       	pop	r13
    1588:	cf 90       	pop	r12
    158a:	08 95       	ret

0000158c <_ZN9OneButton4tickEv>:
/**
 * @brief Check input of the configured pin and then advance the finite state
 * machine (FSM).
 */
void OneButton::tick(void)
{
    158c:	cf 93       	push	r28
    158e:	df 93       	push	r29
    1590:	ec 01       	movw	r28, r24
  if (_pin >= 0) {
    1592:	88 81       	ld	r24, Y
    1594:	99 81       	ldd	r25, Y+1	; 0x01
    1596:	97 fd       	sbrc	r25, 7
    1598:	0e c0       	rjmp	.+28     	; 0x15b6 <_ZN9OneButton4tickEv+0x2a>
    tick(digitalRead(_pin) == _buttonPressed);
    159a:	0e 94 8d 11 	call	0x231a	; 0x231a <digitalRead>
    159e:	61 e0       	ldi	r22, 0x01	; 1
    15a0:	28 85       	ldd	r18, Y+8	; 0x08
    15a2:	39 85       	ldd	r19, Y+9	; 0x09
    15a4:	28 17       	cp	r18, r24
    15a6:	39 07       	cpc	r19, r25
    15a8:	09 f0       	breq	.+2      	; 0x15ac <_ZN9OneButton4tickEv+0x20>
    15aa:	60 e0       	ldi	r22, 0x00	; 0
    15ac:	ce 01       	movw	r24, r28
  }
}
    15ae:	df 91       	pop	r29
    15b0:	cf 91       	pop	r28
 * machine (FSM).
 */
void OneButton::tick(void)
{
  if (_pin >= 0) {
    tick(digitalRead(_pin) == _buttonPressed);
    15b2:	0c 94 ee 09 	jmp	0x13dc	; 0x13dc <_ZN9OneButton4tickEb>
  }
}
    15b6:	df 91       	pop	r29
    15b8:	cf 91       	pop	r28
    15ba:	08 95       	ret

000015bc <twi_init>:
{
  // transmit master read ready signal, with or without ack
  if(ack){
    TWCR = _BV(TWEN) | _BV(TWIE) | _BV(TWINT) | _BV(TWEA);
  }else{
	  TWCR = _BV(TWEN) | _BV(TWIE) | _BV(TWINT);
    15bc:	10 92 1c 02 	sts	0x021C, r1	; 0x80021c <twi_state>
    15c0:	81 e0       	ldi	r24, 0x01	; 1
    15c2:	80 93 1a 02 	sts	0x021A, r24	; 0x80021a <twi_sendStop>
    15c6:	10 92 19 02 	sts	0x0219, r1	; 0x800219 <twi_inRepStart>
    15ca:	61 e0       	ldi	r22, 0x01	; 1
    15cc:	82 e1       	ldi	r24, 0x12	; 18
    15ce:	0e 94 5e 11 	call	0x22bc	; 0x22bc <digitalWrite>
    15d2:	61 e0       	ldi	r22, 0x01	; 1
    15d4:	83 e1       	ldi	r24, 0x13	; 19
    15d6:	0e 94 5e 11 	call	0x22bc	; 0x22bc <digitalWrite>
    15da:	e9 eb       	ldi	r30, 0xB9	; 185
    15dc:	f0 e0       	ldi	r31, 0x00	; 0
    15de:	80 81       	ld	r24, Z
    15e0:	8e 7f       	andi	r24, 0xFE	; 254
    15e2:	80 83       	st	Z, r24
    15e4:	80 81       	ld	r24, Z
    15e6:	8d 7f       	andi	r24, 0xFD	; 253
    15e8:	80 83       	st	Z, r24
    15ea:	88 e4       	ldi	r24, 0x48	; 72
    15ec:	80 93 b8 00 	sts	0x00B8, r24	; 0x8000b8 <__TEXT_REGION_LENGTH__+0x7e00b8>
    15f0:	85 e4       	ldi	r24, 0x45	; 69
    15f2:	80 93 bc 00 	sts	0x00BC, r24	; 0x8000bc <__TEXT_REGION_LENGTH__+0x7e00bc>
    15f6:	08 95       	ret

000015f8 <twi_readFrom>:
    15f8:	41 32       	cpi	r20, 0x21	; 33
    15fa:	08 f0       	brcs	.+2      	; 0x15fe <twi_readFrom+0x6>
    15fc:	43 c0       	rjmp	.+134    	; 0x1684 <twi_readFrom+0x8c>
    15fe:	90 91 1c 02 	lds	r25, 0x021C	; 0x80021c <twi_state>
    1602:	91 11       	cpse	r25, r1
    1604:	fc cf       	rjmp	.-8      	; 0x15fe <twi_readFrom+0x6>
    1606:	91 e0       	ldi	r25, 0x01	; 1
    1608:	90 93 1c 02 	sts	0x021C, r25	; 0x80021c <twi_state>
    160c:	20 93 1a 02 	sts	0x021A, r18	; 0x80021a <twi_sendStop>
    1610:	2f ef       	ldi	r18, 0xFF	; 255
    1612:	20 93 af 01 	sts	0x01AF, r18	; 0x8001af <twi_error>
    1616:	10 92 f4 01 	sts	0x01F4, r1	; 0x8001f4 <twi_masterBufferIndex>
    161a:	24 0f       	add	r18, r20
    161c:	20 93 f3 01 	sts	0x01F3, r18	; 0x8001f3 <twi_masterBufferLength>
    1620:	90 93 1b 02 	sts	0x021B, r25	; 0x80021b <twi_slarw>
    1624:	90 91 1b 02 	lds	r25, 0x021B	; 0x80021b <twi_slarw>
    1628:	88 0f       	add	r24, r24
    162a:	89 2b       	or	r24, r25
    162c:	80 93 1b 02 	sts	0x021B, r24	; 0x80021b <twi_slarw>
    1630:	80 91 19 02 	lds	r24, 0x0219	; 0x800219 <twi_inRepStart>
    1634:	81 30       	cpi	r24, 0x01	; 1
    1636:	61 f4       	brne	.+24     	; 0x1650 <twi_readFrom+0x58>
    1638:	10 92 19 02 	sts	0x0219, r1	; 0x800219 <twi_inRepStart>
    163c:	80 91 1b 02 	lds	r24, 0x021B	; 0x80021b <twi_slarw>
    1640:	80 93 bb 00 	sts	0x00BB, r24	; 0x8000bb <__TEXT_REGION_LENGTH__+0x7e00bb>
    1644:	80 91 bc 00 	lds	r24, 0x00BC	; 0x8000bc <__TEXT_REGION_LENGTH__+0x7e00bc>
    1648:	83 fd       	sbrc	r24, 3
    164a:	f8 cf       	rjmp	.-16     	; 0x163c <twi_readFrom+0x44>
    164c:	85 ec       	ldi	r24, 0xC5	; 197
    164e:	01 c0       	rjmp	.+2      	; 0x1652 <twi_readFrom+0x5a>
    1650:	85 ee       	ldi	r24, 0xE5	; 229
    1652:	80 93 bc 00 	sts	0x00BC, r24	; 0x8000bc <__TEXT_REGION_LENGTH__+0x7e00bc>
    1656:	80 91 1c 02 	lds	r24, 0x021C	; 0x80021c <twi_state>
    165a:	81 30       	cpi	r24, 0x01	; 1
    165c:	e1 f3       	breq	.-8      	; 0x1656 <twi_readFrom+0x5e>
    165e:	80 91 f4 01 	lds	r24, 0x01F4	; 0x8001f4 <twi_masterBufferIndex>
    1662:	84 17       	cp	r24, r20
    1664:	10 f4       	brcc	.+4      	; 0x166a <twi_readFrom+0x72>
    1666:	40 91 f4 01 	lds	r20, 0x01F4	; 0x8001f4 <twi_masterBufferIndex>
    166a:	a5 ef       	ldi	r26, 0xF5	; 245
    166c:	b1 e0       	ldi	r27, 0x01	; 1
    166e:	96 2f       	mov	r25, r22
    1670:	fb 01       	movw	r30, r22
    1672:	8e 2f       	mov	r24, r30
    1674:	89 1b       	sub	r24, r25
    1676:	84 17       	cp	r24, r20
    1678:	18 f4       	brcc	.+6      	; 0x1680 <twi_readFrom+0x88>
    167a:	8d 91       	ld	r24, X+
    167c:	81 93       	st	Z+, r24
    167e:	f9 cf       	rjmp	.-14     	; 0x1672 <twi_readFrom+0x7a>
    1680:	84 2f       	mov	r24, r20
    1682:	08 95       	ret
    1684:	80 e0       	ldi	r24, 0x00	; 0
    1686:	08 95       	ret

00001688 <twi_writeTo>:
    1688:	0f 93       	push	r16
    168a:	41 32       	cpi	r20, 0x21	; 33
    168c:	08 f0       	brcs	.+2      	; 0x1690 <twi_writeTo+0x8>
    168e:	4a c0       	rjmp	.+148    	; 0x1724 <twi_writeTo+0x9c>
    1690:	90 91 1c 02 	lds	r25, 0x021C	; 0x80021c <twi_state>
    1694:	91 11       	cpse	r25, r1
    1696:	fc cf       	rjmp	.-8      	; 0x1690 <twi_writeTo+0x8>
    1698:	32 e0       	ldi	r19, 0x02	; 2
    169a:	30 93 1c 02 	sts	0x021C, r19	; 0x80021c <twi_state>
    169e:	00 93 1a 02 	sts	0x021A, r16	; 0x80021a <twi_sendStop>
    16a2:	3f ef       	ldi	r19, 0xFF	; 255
    16a4:	30 93 af 01 	sts	0x01AF, r19	; 0x8001af <twi_error>
    16a8:	10 92 f4 01 	sts	0x01F4, r1	; 0x8001f4 <twi_masterBufferIndex>
    16ac:	40 93 f3 01 	sts	0x01F3, r20	; 0x8001f3 <twi_masterBufferLength>
    16b0:	56 2f       	mov	r21, r22
    16b2:	a5 ef       	ldi	r26, 0xF5	; 245
    16b4:	b1 e0       	ldi	r27, 0x01	; 1
    16b6:	fb 01       	movw	r30, r22
    16b8:	3e 2f       	mov	r19, r30
    16ba:	35 1b       	sub	r19, r21
    16bc:	34 17       	cp	r19, r20
    16be:	18 f4       	brcc	.+6      	; 0x16c6 <twi_writeTo+0x3e>
    16c0:	31 91       	ld	r19, Z+
    16c2:	3d 93       	st	X+, r19
    16c4:	f9 cf       	rjmp	.-14     	; 0x16b8 <twi_writeTo+0x30>
    16c6:	10 92 1b 02 	sts	0x021B, r1	; 0x80021b <twi_slarw>
    16ca:	30 91 1b 02 	lds	r19, 0x021B	; 0x80021b <twi_slarw>
    16ce:	88 0f       	add	r24, r24
    16d0:	83 2b       	or	r24, r19
    16d2:	80 93 1b 02 	sts	0x021B, r24	; 0x80021b <twi_slarw>
    16d6:	80 91 19 02 	lds	r24, 0x0219	; 0x800219 <twi_inRepStart>
    16da:	81 30       	cpi	r24, 0x01	; 1
    16dc:	61 f4       	brne	.+24     	; 0x16f6 <twi_writeTo+0x6e>
    16de:	10 92 19 02 	sts	0x0219, r1	; 0x800219 <twi_inRepStart>
    16e2:	80 91 1b 02 	lds	r24, 0x021B	; 0x80021b <twi_slarw>
    16e6:	80 93 bb 00 	sts	0x00BB, r24	; 0x8000bb <__TEXT_REGION_LENGTH__+0x7e00bb>
    16ea:	80 91 bc 00 	lds	r24, 0x00BC	; 0x8000bc <__TEXT_REGION_LENGTH__+0x7e00bc>
    16ee:	83 fd       	sbrc	r24, 3
    16f0:	f8 cf       	rjmp	.-16     	; 0x16e2 <twi_writeTo+0x5a>
    16f2:	85 ec       	ldi	r24, 0xC5	; 197
    16f4:	01 c0       	rjmp	.+2      	; 0x16f8 <twi_writeTo+0x70>
    16f6:	85 ee       	ldi	r24, 0xE5	; 229
    16f8:	80 93 bc 00 	sts	0x00BC, r24	; 0x8000bc <__TEXT_REGION_LENGTH__+0x7e00bc>
    16fc:	22 23       	and	r18, r18
    16fe:	21 f0       	breq	.+8      	; 0x1708 <twi_writeTo+0x80>
    1700:	80 91 1c 02 	lds	r24, 0x021C	; 0x80021c <twi_state>
    1704:	82 30       	cpi	r24, 0x02	; 2
    1706:	d1 f3       	breq	.-12     	; 0x16fc <twi_writeTo+0x74>
    1708:	80 91 af 01 	lds	r24, 0x01AF	; 0x8001af <twi_error>
    170c:	8f 3f       	cpi	r24, 0xFF	; 255
    170e:	79 f0       	breq	.+30     	; 0x172e <twi_writeTo+0xa6>
    1710:	80 91 af 01 	lds	r24, 0x01AF	; 0x8001af <twi_error>
    1714:	80 32       	cpi	r24, 0x20	; 32
    1716:	41 f0       	breq	.+16     	; 0x1728 <twi_writeTo+0xa0>
    1718:	80 91 af 01 	lds	r24, 0x01AF	; 0x8001af <twi_error>
    171c:	80 33       	cpi	r24, 0x30	; 48
    171e:	31 f0       	breq	.+12     	; 0x172c <twi_writeTo+0xa4>
    1720:	94 e0       	ldi	r25, 0x04	; 4
    1722:	05 c0       	rjmp	.+10     	; 0x172e <twi_writeTo+0xa6>
    1724:	91 e0       	ldi	r25, 0x01	; 1
    1726:	03 c0       	rjmp	.+6      	; 0x172e <twi_writeTo+0xa6>
    1728:	92 e0       	ldi	r25, 0x02	; 2
    172a:	01 c0       	rjmp	.+2      	; 0x172e <twi_writeTo+0xa6>
    172c:	93 e0       	ldi	r25, 0x03	; 3
    172e:	89 2f       	mov	r24, r25
    1730:	0f 91       	pop	r16
    1732:	08 95       	ret

00001734 <twi_transmit>:
    1734:	40 91 d1 01 	lds	r20, 0x01D1	; 0x8001d1 <twi_txBufferLength>
    1738:	26 2f       	mov	r18, r22
    173a:	30 e0       	ldi	r19, 0x00	; 0
    173c:	24 0f       	add	r18, r20
    173e:	31 1d       	adc	r19, r1
    1740:	21 32       	cpi	r18, 0x21	; 33
    1742:	31 05       	cpc	r19, r1
    1744:	dc f4       	brge	.+54     	; 0x177c <twi_transmit+0x48>
    1746:	20 91 1c 02 	lds	r18, 0x021C	; 0x80021c <twi_state>
    174a:	24 30       	cpi	r18, 0x04	; 4
    174c:	c9 f4       	brne	.+50     	; 0x1780 <twi_transmit+0x4c>
    174e:	fc 01       	movw	r30, r24
    1750:	80 e0       	ldi	r24, 0x00	; 0
    1752:	90 e0       	ldi	r25, 0x00	; 0
    1754:	86 17       	cp	r24, r22
    1756:	58 f4       	brcc	.+22     	; 0x176e <twi_transmit+0x3a>
    1758:	30 91 d1 01 	lds	r19, 0x01D1	; 0x8001d1 <twi_txBufferLength>
    175c:	21 91       	ld	r18, Z+
    175e:	dc 01       	movw	r26, r24
    1760:	ad 52       	subi	r26, 0x2D	; 45
    1762:	be 4f       	sbci	r27, 0xFE	; 254
    1764:	a3 0f       	add	r26, r19
    1766:	b1 1d       	adc	r27, r1
    1768:	2c 93       	st	X, r18
    176a:	01 96       	adiw	r24, 0x01	; 1
    176c:	f3 cf       	rjmp	.-26     	; 0x1754 <twi_transmit+0x20>
    176e:	80 91 d1 01 	lds	r24, 0x01D1	; 0x8001d1 <twi_txBufferLength>
    1772:	68 0f       	add	r22, r24
    1774:	60 93 d1 01 	sts	0x01D1, r22	; 0x8001d1 <twi_txBufferLength>
    1778:	80 e0       	ldi	r24, 0x00	; 0
    177a:	08 95       	ret
    177c:	81 e0       	ldi	r24, 0x01	; 1
    177e:	08 95       	ret
    1780:	82 e0       	ldi	r24, 0x02	; 2
    1782:	08 95       	ret

00001784 <twi_attachSlaveRxEvent>:
    1784:	90 93 16 02 	sts	0x0216, r25	; 0x800216 <twi_onSlaveReceive+0x1>
    1788:	80 93 15 02 	sts	0x0215, r24	; 0x800215 <twi_onSlaveReceive>
    178c:	08 95       	ret

0000178e <twi_attachSlaveTxEvent>:
    178e:	90 93 18 02 	sts	0x0218, r25	; 0x800218 <twi_onSlaveTransmit+0x1>
    1792:	80 93 17 02 	sts	0x0217, r24	; 0x800217 <twi_onSlaveTransmit>
    1796:	08 95       	ret

00001798 <twi_stop>:
 * Output   none
 */
void twi_stop(void)
{
  // send stop condition
  TWCR = _BV(TWEN) | _BV(TWIE) | _BV(TWEA) | _BV(TWINT) | _BV(TWSTO);
    1798:	85 ed       	ldi	r24, 0xD5	; 213
    179a:	80 93 bc 00 	sts	0x00BC, r24	; 0x8000bc <__TEXT_REGION_LENGTH__+0x7e00bc>

  // wait for stop condition to be exectued on bus
  // TWINT is not set after a stop condition!
  while(TWCR & _BV(TWSTO)){
    179e:	80 91 bc 00 	lds	r24, 0x00BC	; 0x8000bc <__TEXT_REGION_LENGTH__+0x7e00bc>
    17a2:	84 fd       	sbrc	r24, 4
    17a4:	fc cf       	rjmp	.-8      	; 0x179e <twi_stop+0x6>
    continue;
  }

  // update twi state
  twi_state = TWI_READY;
    17a6:	10 92 1c 02 	sts	0x021C, r1	; 0x80021c <twi_state>
    17aa:	08 95       	ret

000017ac <twi_releaseBus>:
 * Output   none
 */
void twi_releaseBus(void)
{
  // release bus
  TWCR = _BV(TWEN) | _BV(TWIE) | _BV(TWEA) | _BV(TWINT);
    17ac:	85 ec       	ldi	r24, 0xC5	; 197
    17ae:	80 93 bc 00 	sts	0x00BC, r24	; 0x8000bc <__TEXT_REGION_LENGTH__+0x7e00bc>

  // update twi state
  twi_state = TWI_READY;
    17b2:	10 92 1c 02 	sts	0x021C, r1	; 0x80021c <twi_state>
    17b6:	08 95       	ret

000017b8 <__vector_24>:
}

ISR(TWI_vect)
{
    17b8:	1f 92       	push	r1
    17ba:	0f 92       	push	r0
    17bc:	0f b6       	in	r0, 0x3f	; 63
    17be:	0f 92       	push	r0
    17c0:	11 24       	eor	r1, r1
    17c2:	2f 93       	push	r18
    17c4:	3f 93       	push	r19
    17c6:	4f 93       	push	r20
    17c8:	5f 93       	push	r21
    17ca:	6f 93       	push	r22
    17cc:	7f 93       	push	r23
    17ce:	8f 93       	push	r24
    17d0:	9f 93       	push	r25
    17d2:	af 93       	push	r26
    17d4:	bf 93       	push	r27
    17d6:	ef 93       	push	r30
    17d8:	ff 93       	push	r31
  switch(TW_STATUS){
    17da:	80 91 b9 00 	lds	r24, 0x00B9	; 0x8000b9 <__TEXT_REGION_LENGTH__+0x7e00b9>
    17de:	88 7f       	andi	r24, 0xF8	; 248
    17e0:	80 36       	cpi	r24, 0x60	; 96
    17e2:	09 f4       	brne	.+2      	; 0x17e6 <__vector_24+0x2e>
    17e4:	9e c0       	rjmp	.+316    	; 0x1922 <__vector_24+0x16a>
    17e6:	78 f5       	brcc	.+94     	; 0x1846 <__vector_24+0x8e>
    17e8:	88 32       	cpi	r24, 0x28	; 40
    17ea:	09 f4       	brne	.+2      	; 0x17ee <__vector_24+0x36>
    17ec:	5d c0       	rjmp	.+186    	; 0x18a8 <__vector_24+0xf0>
    17ee:	90 f4       	brcc	.+36     	; 0x1814 <__vector_24+0x5c>
    17f0:	80 31       	cpi	r24, 0x10	; 16
    17f2:	09 f4       	brne	.+2      	; 0x17f6 <__vector_24+0x3e>
    17f4:	56 c0       	rjmp	.+172    	; 0x18a2 <__vector_24+0xea>
    17f6:	38 f4       	brcc	.+14     	; 0x1806 <__vector_24+0x4e>
    17f8:	88 23       	and	r24, r24
    17fa:	09 f4       	brne	.+2      	; 0x17fe <__vector_24+0x46>
    17fc:	f5 c0       	rjmp	.+490    	; 0x19e8 <__vector_24+0x230>
    17fe:	88 30       	cpi	r24, 0x08	; 8
    1800:	09 f4       	brne	.+2      	; 0x1804 <__vector_24+0x4c>
    1802:	4f c0       	rjmp	.+158    	; 0x18a2 <__vector_24+0xea>
    1804:	f5 c0       	rjmp	.+490    	; 0x19f0 <__vector_24+0x238>
    1806:	88 31       	cpi	r24, 0x18	; 24
    1808:	09 f4       	brne	.+2      	; 0x180c <__vector_24+0x54>
    180a:	4e c0       	rjmp	.+156    	; 0x18a8 <__vector_24+0xf0>
    180c:	80 32       	cpi	r24, 0x20	; 32
    180e:	09 f4       	brne	.+2      	; 0x1812 <__vector_24+0x5a>
    1810:	5f c0       	rjmp	.+190    	; 0x18d0 <__vector_24+0x118>
    1812:	ee c0       	rjmp	.+476    	; 0x19f0 <__vector_24+0x238>
    1814:	80 34       	cpi	r24, 0x40	; 64
    1816:	09 f4       	brne	.+2      	; 0x181a <__vector_24+0x62>
    1818:	6a c0       	rjmp	.+212    	; 0x18ee <__vector_24+0x136>
    181a:	58 f4       	brcc	.+22     	; 0x1832 <__vector_24+0x7a>
    181c:	80 33       	cpi	r24, 0x30	; 48
    181e:	09 f4       	brne	.+2      	; 0x1822 <__vector_24+0x6a>
    1820:	57 c0       	rjmp	.+174    	; 0x18d0 <__vector_24+0x118>
    1822:	88 33       	cpi	r24, 0x38	; 56
    1824:	09 f0       	breq	.+2      	; 0x1828 <__vector_24+0x70>
    1826:	e4 c0       	rjmp	.+456    	; 0x19f0 <__vector_24+0x238>
    case TW_MT_DATA_NACK: // data sent, nack received
      twi_error = TW_MT_DATA_NACK;
      twi_stop();
      break;
    case TW_MT_ARB_LOST: // lost bus arbitration
      twi_error = TW_MT_ARB_LOST;
    1828:	80 93 af 01 	sts	0x01AF, r24	; 0x8001af <twi_error>
      twi_releaseBus();
    182c:	0e 94 d6 0b 	call	0x17ac	; 0x17ac <twi_releaseBus>
      break;
    1830:	df c0       	rjmp	.+446    	; 0x19f0 <__vector_24+0x238>
  twi_state = TWI_READY;
}

ISR(TWI_vect)
{
  switch(TW_STATUS){
    1832:	80 35       	cpi	r24, 0x50	; 80
    1834:	09 f4       	brne	.+2      	; 0x1838 <__vector_24+0x80>
    1836:	4f c0       	rjmp	.+158    	; 0x18d6 <__vector_24+0x11e>
    1838:	88 35       	cpi	r24, 0x58	; 88
    183a:	09 f4       	brne	.+2      	; 0x183e <__vector_24+0x86>
    183c:	5d c0       	rjmp	.+186    	; 0x18f8 <__vector_24+0x140>
    183e:	88 34       	cpi	r24, 0x48	; 72
    1840:	09 f0       	breq	.+2      	; 0x1844 <__vector_24+0x8c>
    1842:	d6 c0       	rjmp	.+428    	; 0x19f0 <__vector_24+0x238>
    1844:	d3 c0       	rjmp	.+422    	; 0x19ec <__vector_24+0x234>
    1846:	88 39       	cpi	r24, 0x98	; 152
    1848:	09 f4       	brne	.+2      	; 0x184c <__vector_24+0x94>
    184a:	c4 c0       	rjmp	.+392    	; 0x19d4 <__vector_24+0x21c>
    184c:	a8 f4       	brcc	.+42     	; 0x1878 <__vector_24+0xc0>
    184e:	88 37       	cpi	r24, 0x78	; 120
    1850:	09 f4       	brne	.+2      	; 0x1854 <__vector_24+0x9c>
    1852:	67 c0       	rjmp	.+206    	; 0x1922 <__vector_24+0x16a>
    1854:	38 f4       	brcc	.+14     	; 0x1864 <__vector_24+0xac>
    1856:	88 36       	cpi	r24, 0x68	; 104
    1858:	09 f4       	brne	.+2      	; 0x185c <__vector_24+0xa4>
    185a:	63 c0       	rjmp	.+198    	; 0x1922 <__vector_24+0x16a>
    185c:	80 37       	cpi	r24, 0x70	; 112
    185e:	09 f4       	brne	.+2      	; 0x1862 <__vector_24+0xaa>
    1860:	60 c0       	rjmp	.+192    	; 0x1922 <__vector_24+0x16a>
    1862:	c6 c0       	rjmp	.+396    	; 0x19f0 <__vector_24+0x238>
    1864:	88 38       	cpi	r24, 0x88	; 136
    1866:	09 f4       	brne	.+2      	; 0x186a <__vector_24+0xb2>
    1868:	b5 c0       	rjmp	.+362    	; 0x19d4 <__vector_24+0x21c>
    186a:	80 39       	cpi	r24, 0x90	; 144
    186c:	09 f4       	brne	.+2      	; 0x1870 <__vector_24+0xb8>
    186e:	5f c0       	rjmp	.+190    	; 0x192e <__vector_24+0x176>
    1870:	80 38       	cpi	r24, 0x80	; 128
    1872:	09 f0       	breq	.+2      	; 0x1876 <__vector_24+0xbe>
    1874:	bd c0       	rjmp	.+378    	; 0x19f0 <__vector_24+0x238>
    1876:	5b c0       	rjmp	.+182    	; 0x192e <__vector_24+0x176>
    1878:	80 3b       	cpi	r24, 0xB0	; 176
    187a:	09 f4       	brne	.+2      	; 0x187e <__vector_24+0xc6>
    187c:	83 c0       	rjmp	.+262    	; 0x1984 <__vector_24+0x1cc>
    187e:	38 f4       	brcc	.+14     	; 0x188e <__vector_24+0xd6>
    1880:	80 3a       	cpi	r24, 0xA0	; 160
    1882:	09 f4       	brne	.+2      	; 0x1886 <__vector_24+0xce>
    1884:	66 c0       	rjmp	.+204    	; 0x1952 <__vector_24+0x19a>
    1886:	88 3a       	cpi	r24, 0xA8	; 168
    1888:	09 f4       	brne	.+2      	; 0x188c <__vector_24+0xd4>
    188a:	7c c0       	rjmp	.+248    	; 0x1984 <__vector_24+0x1cc>
    188c:	b1 c0       	rjmp	.+354    	; 0x19f0 <__vector_24+0x238>
    188e:	80 3c       	cpi	r24, 0xC0	; 192
    1890:	09 f4       	brne	.+2      	; 0x1894 <__vector_24+0xdc>
    1892:	a4 c0       	rjmp	.+328    	; 0x19dc <__vector_24+0x224>
    1894:	88 3c       	cpi	r24, 0xC8	; 200
    1896:	09 f4       	brne	.+2      	; 0x189a <__vector_24+0xe2>
    1898:	a1 c0       	rjmp	.+322    	; 0x19dc <__vector_24+0x224>
    189a:	88 3b       	cpi	r24, 0xB8	; 184
    189c:	09 f4       	brne	.+2      	; 0x18a0 <__vector_24+0xe8>
    189e:	87 c0       	rjmp	.+270    	; 0x19ae <__vector_24+0x1f6>
    18a0:	a7 c0       	rjmp	.+334    	; 0x19f0 <__vector_24+0x238>
    // All Master
    case TW_START:     // sent start condition
    case TW_REP_START: // sent repeated start condition
      // copy device address and r/w bit to output register and ack
      TWDR = twi_slarw;
    18a2:	80 91 1b 02 	lds	r24, 0x021B	; 0x80021b <twi_slarw>
    18a6:	10 c0       	rjmp	.+32     	; 0x18c8 <__vector_24+0x110>

    // Master Transmitter
    case TW_MT_SLA_ACK:  // slave receiver acked address
    case TW_MT_DATA_ACK: // slave receiver acked data
      // if there is data to send, send it, otherwise stop 
      if(twi_masterBufferIndex < twi_masterBufferLength){
    18a8:	90 91 f4 01 	lds	r25, 0x01F4	; 0x8001f4 <twi_masterBufferIndex>
    18ac:	80 91 f3 01 	lds	r24, 0x01F3	; 0x8001f3 <twi_masterBufferLength>
    18b0:	98 17       	cp	r25, r24
    18b2:	70 f5       	brcc	.+92     	; 0x1910 <__vector_24+0x158>
        // copy data to output register and ack
        TWDR = twi_masterBuffer[twi_masterBufferIndex++];
    18b4:	e0 91 f4 01 	lds	r30, 0x01F4	; 0x8001f4 <twi_masterBufferIndex>
    18b8:	81 e0       	ldi	r24, 0x01	; 1
    18ba:	8e 0f       	add	r24, r30
    18bc:	80 93 f4 01 	sts	0x01F4, r24	; 0x8001f4 <twi_masterBufferIndex>
    18c0:	f0 e0       	ldi	r31, 0x00	; 0
    18c2:	eb 50       	subi	r30, 0x0B	; 11
    18c4:	fe 4f       	sbci	r31, 0xFE	; 254
    18c6:	80 81       	ld	r24, Z
    18c8:	80 93 bb 00 	sts	0x00BB, r24	; 0x8000bb <__TEXT_REGION_LENGTH__+0x7e00bb>
 */
void twi_reply(uint8_t ack)
{
  // transmit master read ready signal, with or without ack
  if(ack){
    TWCR = _BV(TWEN) | _BV(TWIE) | _BV(TWINT) | _BV(TWEA);
    18cc:	85 ec       	ldi	r24, 0xC5	; 197
    18ce:	83 c0       	rjmp	.+262    	; 0x19d6 <__vector_24+0x21e>
    case TW_MT_SLA_NACK:  // address sent, nack received
      twi_error = TW_MT_SLA_NACK;
      twi_stop();
      break;
    case TW_MT_DATA_NACK: // data sent, nack received
      twi_error = TW_MT_DATA_NACK;
    18d0:	80 93 af 01 	sts	0x01AF, r24	; 0x8001af <twi_error>
    18d4:	8b c0       	rjmp	.+278    	; 0x19ec <__vector_24+0x234>
      break;

    // Master Receiver
    case TW_MR_DATA_ACK: // data received, ack sent
      // put byte into buffer
      twi_masterBuffer[twi_masterBufferIndex++] = TWDR;
    18d6:	e0 91 f4 01 	lds	r30, 0x01F4	; 0x8001f4 <twi_masterBufferIndex>
    18da:	81 e0       	ldi	r24, 0x01	; 1
    18dc:	8e 0f       	add	r24, r30
    18de:	80 93 f4 01 	sts	0x01F4, r24	; 0x8001f4 <twi_masterBufferIndex>
    18e2:	80 91 bb 00 	lds	r24, 0x00BB	; 0x8000bb <__TEXT_REGION_LENGTH__+0x7e00bb>
    18e6:	f0 e0       	ldi	r31, 0x00	; 0
    18e8:	eb 50       	subi	r30, 0x0B	; 11
    18ea:	fe 4f       	sbci	r31, 0xFE	; 254
    18ec:	80 83       	st	Z, r24
    case TW_MR_SLA_ACK:  // address sent, ack received
      // ack if more bytes are expected, otherwise nack
      if(twi_masterBufferIndex < twi_masterBufferLength){
    18ee:	90 91 f4 01 	lds	r25, 0x01F4	; 0x8001f4 <twi_masterBufferIndex>
    18f2:	80 91 f3 01 	lds	r24, 0x01F3	; 0x8001f3 <twi_masterBufferLength>
    18f6:	6b c0       	rjmp	.+214    	; 0x19ce <__vector_24+0x216>
        twi_reply(0);
      }
      break;
    case TW_MR_DATA_NACK: // data received, nack sent
      // put final byte into buffer
      twi_masterBuffer[twi_masterBufferIndex++] = TWDR;
    18f8:	e0 91 f4 01 	lds	r30, 0x01F4	; 0x8001f4 <twi_masterBufferIndex>
    18fc:	81 e0       	ldi	r24, 0x01	; 1
    18fe:	8e 0f       	add	r24, r30
    1900:	80 93 f4 01 	sts	0x01F4, r24	; 0x8001f4 <twi_masterBufferIndex>
    1904:	80 91 bb 00 	lds	r24, 0x00BB	; 0x8000bb <__TEXT_REGION_LENGTH__+0x7e00bb>
    1908:	f0 e0       	ldi	r31, 0x00	; 0
    190a:	eb 50       	subi	r30, 0x0B	; 11
    190c:	fe 4f       	sbci	r31, 0xFE	; 254
    190e:	80 83       	st	Z, r24
	if (twi_sendStop)
    1910:	80 91 1a 02 	lds	r24, 0x021A	; 0x80021a <twi_sendStop>
    1914:	81 11       	cpse	r24, r1
    1916:	6a c0       	rjmp	.+212    	; 0x19ec <__vector_24+0x234>
          twi_stop();
	else {
	  twi_inRepStart = true;	// we're gonna send the START
    1918:	81 e0       	ldi	r24, 0x01	; 1
    191a:	80 93 19 02 	sts	0x0219, r24	; 0x800219 <twi_inRepStart>
	  // don't enable the interrupt. We'll generate the start, but we 
	  // avoid handling the interrupt until we're in the next transaction,
	  // at the point where we would normally issue the start.
	  TWCR = _BV(TWINT) | _BV(TWSTA)| _BV(TWEN) ;
    191e:	84 ea       	ldi	r24, 0xA4	; 164
    1920:	5e c0       	rjmp	.+188    	; 0x19de <__vector_24+0x226>
    case TW_SR_SLA_ACK:   // addressed, returned ack
    case TW_SR_GCALL_ACK: // addressed generally, returned ack
    case TW_SR_ARB_LOST_SLA_ACK:   // lost arbitration, returned ack
    case TW_SR_ARB_LOST_GCALL_ACK: // lost arbitration, returned ack
      // enter slave receiver mode
      twi_state = TWI_SRX;
    1922:	83 e0       	ldi	r24, 0x03	; 3
    1924:	80 93 1c 02 	sts	0x021C, r24	; 0x80021c <twi_state>
      // indicate that rx buffer can be overwritten and ack
      twi_rxBufferIndex = 0;
    1928:	10 92 b0 01 	sts	0x01B0, r1	; 0x8001b0 <twi_rxBufferIndex>
    192c:	cf cf       	rjmp	.-98     	; 0x18cc <__vector_24+0x114>
      twi_reply(1);
      break;
    case TW_SR_DATA_ACK:       // data received, returned ack
    case TW_SR_GCALL_DATA_ACK: // data received generally, returned ack
      // if there is still room in the rx buffer
      if(twi_rxBufferIndex < TWI_BUFFER_LENGTH){
    192e:	80 91 b0 01 	lds	r24, 0x01B0	; 0x8001b0 <twi_rxBufferIndex>
    1932:	80 32       	cpi	r24, 0x20	; 32
    1934:	08 f0       	brcs	.+2      	; 0x1938 <__vector_24+0x180>
    1936:	4e c0       	rjmp	.+156    	; 0x19d4 <__vector_24+0x21c>
        // put byte in buffer and ack
        twi_rxBuffer[twi_rxBufferIndex++] = TWDR;
    1938:	e0 91 b0 01 	lds	r30, 0x01B0	; 0x8001b0 <twi_rxBufferIndex>
    193c:	81 e0       	ldi	r24, 0x01	; 1
    193e:	8e 0f       	add	r24, r30
    1940:	80 93 b0 01 	sts	0x01B0, r24	; 0x8001b0 <twi_rxBufferIndex>
    1944:	80 91 bb 00 	lds	r24, 0x00BB	; 0x8000bb <__TEXT_REGION_LENGTH__+0x7e00bb>
    1948:	f0 e0       	ldi	r31, 0x00	; 0
    194a:	ef 54       	subi	r30, 0x4F	; 79
    194c:	fe 4f       	sbci	r31, 0xFE	; 254
    194e:	80 83       	st	Z, r24
    1950:	bd cf       	rjmp	.-134    	; 0x18cc <__vector_24+0x114>
        twi_reply(0);
      }
      break;
    case TW_SR_STOP: // stop or repeated start condition received
      // ack future responses and leave slave receiver state
      twi_releaseBus();
    1952:	0e 94 d6 0b 	call	0x17ac	; 0x17ac <twi_releaseBus>
      // put a null char after data if there's room
      if(twi_rxBufferIndex < TWI_BUFFER_LENGTH){
    1956:	80 91 b0 01 	lds	r24, 0x01B0	; 0x8001b0 <twi_rxBufferIndex>
    195a:	80 32       	cpi	r24, 0x20	; 32
    195c:	30 f4       	brcc	.+12     	; 0x196a <__vector_24+0x1b2>
        twi_rxBuffer[twi_rxBufferIndex] = '\0';
    195e:	e0 91 b0 01 	lds	r30, 0x01B0	; 0x8001b0 <twi_rxBufferIndex>
    1962:	f0 e0       	ldi	r31, 0x00	; 0
    1964:	ef 54       	subi	r30, 0x4F	; 79
    1966:	fe 4f       	sbci	r31, 0xFE	; 254
    1968:	10 82       	st	Z, r1
      }
      // callback to user defined callback
      twi_onSlaveReceive(twi_rxBuffer, twi_rxBufferIndex);
    196a:	60 91 b0 01 	lds	r22, 0x01B0	; 0x8001b0 <twi_rxBufferIndex>
    196e:	70 e0       	ldi	r23, 0x00	; 0
    1970:	e0 91 15 02 	lds	r30, 0x0215	; 0x800215 <twi_onSlaveReceive>
    1974:	f0 91 16 02 	lds	r31, 0x0216	; 0x800216 <twi_onSlaveReceive+0x1>
    1978:	81 eb       	ldi	r24, 0xB1	; 177
    197a:	91 e0       	ldi	r25, 0x01	; 1
    197c:	09 95       	icall
      // since we submit rx buffer to "wire" library, we can reset it
      twi_rxBufferIndex = 0;
    197e:	10 92 b0 01 	sts	0x01B0, r1	; 0x8001b0 <twi_rxBufferIndex>
      break;
    1982:	36 c0       	rjmp	.+108    	; 0x19f0 <__vector_24+0x238>
    
    // Slave Transmitter
    case TW_ST_SLA_ACK:          // addressed, returned ack
    case TW_ST_ARB_LOST_SLA_ACK: // arbitration lost, returned ack
      // enter slave transmitter mode
      twi_state = TWI_STX;
    1984:	84 e0       	ldi	r24, 0x04	; 4
    1986:	80 93 1c 02 	sts	0x021C, r24	; 0x80021c <twi_state>
      // ready the tx buffer index for iteration
      twi_txBufferIndex = 0;
    198a:	10 92 d2 01 	sts	0x01D2, r1	; 0x8001d2 <twi_txBufferIndex>
      // set tx buffer length to be zero, to verify if user changes it
      twi_txBufferLength = 0;
    198e:	10 92 d1 01 	sts	0x01D1, r1	; 0x8001d1 <twi_txBufferLength>
      // request for txBuffer to be filled and length to be set
      // note: user must call twi_transmit(bytes, length) to do this
      twi_onSlaveTransmit();
    1992:	e0 91 17 02 	lds	r30, 0x0217	; 0x800217 <twi_onSlaveTransmit>
    1996:	f0 91 18 02 	lds	r31, 0x0218	; 0x800218 <twi_onSlaveTransmit+0x1>
    199a:	09 95       	icall
      // if they didn't change buffer & length, initialize it
      if(0 == twi_txBufferLength){
    199c:	80 91 d1 01 	lds	r24, 0x01D1	; 0x8001d1 <twi_txBufferLength>
    19a0:	81 11       	cpse	r24, r1
    19a2:	05 c0       	rjmp	.+10     	; 0x19ae <__vector_24+0x1f6>
        twi_txBufferLength = 1;
    19a4:	81 e0       	ldi	r24, 0x01	; 1
    19a6:	80 93 d1 01 	sts	0x01D1, r24	; 0x8001d1 <twi_txBufferLength>
        twi_txBuffer[0] = 0x00;
    19aa:	10 92 d3 01 	sts	0x01D3, r1	; 0x8001d3 <twi_txBuffer>
      }
      // transmit first byte from buffer, fall
    case TW_ST_DATA_ACK: // byte sent, ack returned
      // copy data to output register
      TWDR = twi_txBuffer[twi_txBufferIndex++];
    19ae:	e0 91 d2 01 	lds	r30, 0x01D2	; 0x8001d2 <twi_txBufferIndex>
    19b2:	81 e0       	ldi	r24, 0x01	; 1
    19b4:	8e 0f       	add	r24, r30
    19b6:	80 93 d2 01 	sts	0x01D2, r24	; 0x8001d2 <twi_txBufferIndex>
    19ba:	f0 e0       	ldi	r31, 0x00	; 0
    19bc:	ed 52       	subi	r30, 0x2D	; 45
    19be:	fe 4f       	sbci	r31, 0xFE	; 254
    19c0:	80 81       	ld	r24, Z
    19c2:	80 93 bb 00 	sts	0x00BB, r24	; 0x8000bb <__TEXT_REGION_LENGTH__+0x7e00bb>
      // if there is more to send, ack, otherwise nack
      if(twi_txBufferIndex < twi_txBufferLength){
    19c6:	90 91 d2 01 	lds	r25, 0x01D2	; 0x8001d2 <twi_txBufferIndex>
    19ca:	80 91 d1 01 	lds	r24, 0x01D1	; 0x8001d1 <twi_txBufferLength>
    19ce:	98 17       	cp	r25, r24
    19d0:	08 f4       	brcc	.+2      	; 0x19d4 <__vector_24+0x21c>
    19d2:	7c cf       	rjmp	.-264    	; 0x18cc <__vector_24+0x114>
{
  // transmit master read ready signal, with or without ack
  if(ack){
    TWCR = _BV(TWEN) | _BV(TWIE) | _BV(TWINT) | _BV(TWEA);
  }else{
	  TWCR = _BV(TWEN) | _BV(TWIE) | _BV(TWINT);
    19d4:	85 e8       	ldi	r24, 0x85	; 133
    19d6:	80 93 bc 00 	sts	0x00BC, r24	; 0x8000bc <__TEXT_REGION_LENGTH__+0x7e00bc>
    19da:	0a c0       	rjmp	.+20     	; 0x19f0 <__vector_24+0x238>
 */
void twi_reply(uint8_t ack)
{
  // transmit master read ready signal, with or without ack
  if(ack){
    TWCR = _BV(TWEN) | _BV(TWIE) | _BV(TWINT) | _BV(TWEA);
    19dc:	85 ec       	ldi	r24, 0xC5	; 197
    19de:	80 93 bc 00 	sts	0x00BC, r24	; 0x8000bc <__TEXT_REGION_LENGTH__+0x7e00bc>
    case TW_ST_DATA_NACK: // received nack, we are done 
    case TW_ST_LAST_DATA: // received ack, but we are done already!
      // ack future responses
      twi_reply(1);
      // leave slave receiver state
      twi_state = TWI_READY;
    19e2:	10 92 1c 02 	sts	0x021C, r1	; 0x80021c <twi_state>
      break;
    19e6:	04 c0       	rjmp	.+8      	; 0x19f0 <__vector_24+0x238>

    // All
    case TW_NO_INFO:   // no state information
      break;
    case TW_BUS_ERROR: // bus error, illegal stop/start
      twi_error = TW_BUS_ERROR;
    19e8:	10 92 af 01 	sts	0x01AF, r1	; 0x8001af <twi_error>
      twi_stop();
    19ec:	0e 94 cc 0b 	call	0x1798	; 0x1798 <twi_stop>
      break;
  }
}
    19f0:	ff 91       	pop	r31
    19f2:	ef 91       	pop	r30
    19f4:	bf 91       	pop	r27
    19f6:	af 91       	pop	r26
    19f8:	9f 91       	pop	r25
    19fa:	8f 91       	pop	r24
    19fc:	7f 91       	pop	r23
    19fe:	6f 91       	pop	r22
    1a00:	5f 91       	pop	r21
    1a02:	4f 91       	pop	r20
    1a04:	3f 91       	pop	r19
    1a06:	2f 91       	pop	r18
    1a08:	0f 90       	pop	r0
    1a0a:	0f be       	out	0x3f, r0	; 63
    1a0c:	0f 90       	pop	r0
    1a0e:	1f 90       	pop	r1
    1a10:	18 95       	reti

00001a12 <_ZN5Print17availableForWriteEv>:
}

// sets function called on slave read
void TwoWire::onRequest( void (*function)(void) )
{
  user_onRequest = function;
    1a12:	80 e0       	ldi	r24, 0x00	; 0
    1a14:	90 e0       	ldi	r25, 0x00	; 0
    1a16:	08 95       	ret

00001a18 <_ZN7TwoWire9availableEv>:
    1a18:	80 91 51 02 	lds	r24, 0x0251	; 0x800251 <_ZN7TwoWire14rxBufferLengthE>
    1a1c:	90 e0       	ldi	r25, 0x00	; 0
    1a1e:	20 91 52 02 	lds	r18, 0x0252	; 0x800252 <_ZN7TwoWire13rxBufferIndexE>
    1a22:	82 1b       	sub	r24, r18
    1a24:	91 09       	sbc	r25, r1
    1a26:	08 95       	ret

00001a28 <_ZN7TwoWire4readEv>:
    1a28:	90 91 52 02 	lds	r25, 0x0252	; 0x800252 <_ZN7TwoWire13rxBufferIndexE>
    1a2c:	80 91 51 02 	lds	r24, 0x0251	; 0x800251 <_ZN7TwoWire14rxBufferLengthE>
    1a30:	98 17       	cp	r25, r24
    1a32:	50 f4       	brcc	.+20     	; 0x1a48 <_ZN7TwoWire4readEv+0x20>
    1a34:	e9 2f       	mov	r30, r25
    1a36:	f0 e0       	ldi	r31, 0x00	; 0
    1a38:	ed 5a       	subi	r30, 0xAD	; 173
    1a3a:	fd 4f       	sbci	r31, 0xFD	; 253
    1a3c:	20 81       	ld	r18, Z
    1a3e:	30 e0       	ldi	r19, 0x00	; 0
    1a40:	9f 5f       	subi	r25, 0xFF	; 255
    1a42:	90 93 52 02 	sts	0x0252, r25	; 0x800252 <_ZN7TwoWire13rxBufferIndexE>
    1a46:	02 c0       	rjmp	.+4      	; 0x1a4c <_ZN7TwoWire4readEv+0x24>
    1a48:	2f ef       	ldi	r18, 0xFF	; 255
    1a4a:	3f ef       	ldi	r19, 0xFF	; 255
    1a4c:	c9 01       	movw	r24, r18
    1a4e:	08 95       	ret

00001a50 <_ZN7TwoWire4peekEv>:
    1a50:	e0 91 52 02 	lds	r30, 0x0252	; 0x800252 <_ZN7TwoWire13rxBufferIndexE>
    1a54:	80 91 51 02 	lds	r24, 0x0251	; 0x800251 <_ZN7TwoWire14rxBufferLengthE>
    1a58:	e8 17       	cp	r30, r24
    1a5a:	30 f4       	brcc	.+12     	; 0x1a68 <_ZN7TwoWire4peekEv+0x18>
    1a5c:	f0 e0       	ldi	r31, 0x00	; 0
    1a5e:	ed 5a       	subi	r30, 0xAD	; 173
    1a60:	fd 4f       	sbci	r31, 0xFD	; 253
    1a62:	80 81       	ld	r24, Z
    1a64:	90 e0       	ldi	r25, 0x00	; 0
    1a66:	08 95       	ret
    1a68:	8f ef       	ldi	r24, 0xFF	; 255
    1a6a:	9f ef       	ldi	r25, 0xFF	; 255
    1a6c:	08 95       	ret

00001a6e <_ZN7TwoWire5flushEv>:
    1a6e:	08 95       	ret

00001a70 <_ZN7TwoWire16onReceiveServiceEPhi>:
    1a70:	cf 93       	push	r28
    1a72:	df 93       	push	r29
    1a74:	ec 01       	movw	r28, r24
    1a76:	e0 91 29 02 	lds	r30, 0x0229	; 0x800229 <_ZN7TwoWire14user_onReceiveE>
    1a7a:	f0 91 2a 02 	lds	r31, 0x022A	; 0x80022a <_ZN7TwoWire14user_onReceiveE+0x1>
    1a7e:	30 97       	sbiw	r30, 0x00	; 0
    1a80:	f1 f0       	breq	.+60     	; 0x1abe <_ZN7TwoWire16onReceiveServiceEPhi+0x4e>
    1a82:	90 91 52 02 	lds	r25, 0x0252	; 0x800252 <_ZN7TwoWire13rxBufferIndexE>
    1a86:	80 91 51 02 	lds	r24, 0x0251	; 0x800251 <_ZN7TwoWire14rxBufferLengthE>
    1a8a:	98 17       	cp	r25, r24
    1a8c:	c0 f0       	brcs	.+48     	; 0x1abe <_ZN7TwoWire16onReceiveServiceEPhi+0x4e>
    1a8e:	90 e0       	ldi	r25, 0x00	; 0
    1a90:	29 2f       	mov	r18, r25
    1a92:	30 e0       	ldi	r19, 0x00	; 0
    1a94:	26 17       	cp	r18, r22
    1a96:	37 07       	cpc	r19, r23
    1a98:	54 f4       	brge	.+20     	; 0x1aae <_ZN7TwoWire16onReceiveServiceEPhi+0x3e>
    1a9a:	de 01       	movw	r26, r28
    1a9c:	a2 0f       	add	r26, r18
    1a9e:	b3 1f       	adc	r27, r19
    1aa0:	4c 91       	ld	r20, X
    1aa2:	d9 01       	movw	r26, r18
    1aa4:	ad 5a       	subi	r26, 0xAD	; 173
    1aa6:	bd 4f       	sbci	r27, 0xFD	; 253
    1aa8:	4c 93       	st	X, r20
    1aaa:	9f 5f       	subi	r25, 0xFF	; 255
    1aac:	f1 cf       	rjmp	.-30     	; 0x1a90 <_ZN7TwoWire16onReceiveServiceEPhi+0x20>
    1aae:	10 92 52 02 	sts	0x0252, r1	; 0x800252 <_ZN7TwoWire13rxBufferIndexE>
    1ab2:	60 93 51 02 	sts	0x0251, r22	; 0x800251 <_ZN7TwoWire14rxBufferLengthE>
    1ab6:	cb 01       	movw	r24, r22
    1ab8:	df 91       	pop	r29
    1aba:	cf 91       	pop	r28
    1abc:	09 94       	ijmp
    1abe:	df 91       	pop	r29
    1ac0:	cf 91       	pop	r28
    1ac2:	08 95       	ret

00001ac4 <_ZN7TwoWire16onRequestServiceEv>:
    1ac4:	e0 91 2b 02 	lds	r30, 0x022B	; 0x80022b <_ZN7TwoWire14user_onRequestE>
    1ac8:	f0 91 2c 02 	lds	r31, 0x022C	; 0x80022c <_ZN7TwoWire14user_onRequestE+0x1>
    1acc:	30 97       	sbiw	r30, 0x00	; 0
    1ace:	29 f0       	breq	.+10     	; 0x1ada <_ZN7TwoWire16onRequestServiceEv+0x16>
    1ad0:	10 92 2f 02 	sts	0x022F, r1	; 0x80022f <_ZN7TwoWire13txBufferIndexE>
    1ad4:	10 92 2e 02 	sts	0x022E, r1	; 0x80022e <_ZN7TwoWire14txBufferLengthE>
    1ad8:	09 94       	ijmp
    1ada:	08 95       	ret

00001adc <_ZN7TwoWire5writeEPKhj>:
    1adc:	cf 92       	push	r12
    1ade:	df 92       	push	r13
    1ae0:	ef 92       	push	r14
    1ae2:	ff 92       	push	r15
    1ae4:	0f 93       	push	r16
    1ae6:	1f 93       	push	r17
    1ae8:	cf 93       	push	r28
    1aea:	df 93       	push	r29
    1aec:	7c 01       	movw	r14, r24
    1aee:	cb 01       	movw	r24, r22
    1af0:	8a 01       	movw	r16, r20
    1af2:	20 91 2d 02 	lds	r18, 0x022D	; 0x80022d <_ZN7TwoWire12transmittingE>
    1af6:	22 23       	and	r18, r18
    1af8:	89 f0       	breq	.+34     	; 0x1b1c <_ZN7TwoWire5writeEPKhj+0x40>
    1afa:	eb 01       	movw	r28, r22
    1afc:	6b 01       	movw	r12, r22
    1afe:	c4 0e       	add	r12, r20
    1b00:	d5 1e       	adc	r13, r21
    1b02:	cc 15       	cp	r28, r12
    1b04:	dd 05       	cpc	r29, r13
    1b06:	69 f0       	breq	.+26     	; 0x1b22 <_ZN7TwoWire5writeEPKhj+0x46>
    1b08:	69 91       	ld	r22, Y+
    1b0a:	d7 01       	movw	r26, r14
    1b0c:	ed 91       	ld	r30, X+
    1b0e:	fc 91       	ld	r31, X
    1b10:	01 90       	ld	r0, Z+
    1b12:	f0 81       	ld	r31, Z
    1b14:	e0 2d       	mov	r30, r0
    1b16:	c7 01       	movw	r24, r14
    1b18:	09 95       	icall
    1b1a:	f3 cf       	rjmp	.-26     	; 0x1b02 <_ZN7TwoWire5writeEPKhj+0x26>
    1b1c:	64 2f       	mov	r22, r20
    1b1e:	0e 94 9a 0b 	call	0x1734	; 0x1734 <twi_transmit>
    1b22:	c8 01       	movw	r24, r16
    1b24:	df 91       	pop	r29
    1b26:	cf 91       	pop	r28
    1b28:	1f 91       	pop	r17
    1b2a:	0f 91       	pop	r16
    1b2c:	ff 90       	pop	r15
    1b2e:	ef 90       	pop	r14
    1b30:	df 90       	pop	r13
    1b32:	cf 90       	pop	r12
    1b34:	08 95       	ret

00001b36 <_ZN7TwoWire5writeEh>:
    1b36:	cf 93       	push	r28
    1b38:	df 93       	push	r29
    1b3a:	1f 92       	push	r1
    1b3c:	cd b7       	in	r28, 0x3d	; 61
    1b3e:	de b7       	in	r29, 0x3e	; 62
    1b40:	69 83       	std	Y+1, r22	; 0x01
    1b42:	20 91 2d 02 	lds	r18, 0x022D	; 0x80022d <_ZN7TwoWire12transmittingE>
    1b46:	22 23       	and	r18, r18
    1b48:	d1 f0       	breq	.+52     	; 0x1b7e <_ZN7TwoWire5writeEh+0x48>
    1b4a:	20 91 2e 02 	lds	r18, 0x022E	; 0x80022e <_ZN7TwoWire14txBufferLengthE>
    1b4e:	20 32       	cpi	r18, 0x20	; 32
    1b50:	40 f0       	brcs	.+16     	; 0x1b62 <_ZN7TwoWire5writeEh+0x2c>
    1b52:	21 e0       	ldi	r18, 0x01	; 1
    1b54:	30 e0       	ldi	r19, 0x00	; 0
    1b56:	fc 01       	movw	r30, r24
    1b58:	33 83       	std	Z+3, r19	; 0x03
    1b5a:	22 83       	std	Z+2, r18	; 0x02
    1b5c:	80 e0       	ldi	r24, 0x00	; 0
    1b5e:	90 e0       	ldi	r25, 0x00	; 0
    1b60:	15 c0       	rjmp	.+42     	; 0x1b8c <_ZN7TwoWire5writeEh+0x56>
    1b62:	80 91 2f 02 	lds	r24, 0x022F	; 0x80022f <_ZN7TwoWire13txBufferIndexE>
    1b66:	e8 2f       	mov	r30, r24
    1b68:	f0 e0       	ldi	r31, 0x00	; 0
    1b6a:	e0 5d       	subi	r30, 0xD0	; 208
    1b6c:	fd 4f       	sbci	r31, 0xFD	; 253
    1b6e:	99 81       	ldd	r25, Y+1	; 0x01
    1b70:	90 83       	st	Z, r25
    1b72:	8f 5f       	subi	r24, 0xFF	; 255
    1b74:	80 93 2f 02 	sts	0x022F, r24	; 0x80022f <_ZN7TwoWire13txBufferIndexE>
    1b78:	80 93 2e 02 	sts	0x022E, r24	; 0x80022e <_ZN7TwoWire14txBufferLengthE>
    1b7c:	05 c0       	rjmp	.+10     	; 0x1b88 <_ZN7TwoWire5writeEh+0x52>
    1b7e:	61 e0       	ldi	r22, 0x01	; 1
    1b80:	ce 01       	movw	r24, r28
    1b82:	01 96       	adiw	r24, 0x01	; 1
    1b84:	0e 94 9a 0b 	call	0x1734	; 0x1734 <twi_transmit>
    1b88:	81 e0       	ldi	r24, 0x01	; 1
    1b8a:	90 e0       	ldi	r25, 0x00	; 0
    1b8c:	0f 90       	pop	r0
    1b8e:	df 91       	pop	r29
    1b90:	cf 91       	pop	r28
    1b92:	08 95       	ret

00001b94 <_ZN7TwoWireC1Ev>:
    1b94:	fc 01       	movw	r30, r24
    1b96:	13 82       	std	Z+3, r1	; 0x03
    1b98:	12 82       	std	Z+2, r1	; 0x02
    1b9a:	88 ee       	ldi	r24, 0xE8	; 232
    1b9c:	93 e0       	ldi	r25, 0x03	; 3
    1b9e:	a0 e0       	ldi	r26, 0x00	; 0
    1ba0:	b0 e0       	ldi	r27, 0x00	; 0
    1ba2:	84 83       	std	Z+4, r24	; 0x04
    1ba4:	95 83       	std	Z+5, r25	; 0x05
    1ba6:	a6 83       	std	Z+6, r26	; 0x06
    1ba8:	b7 83       	std	Z+7, r27	; 0x07
    1baa:	8d e2       	ldi	r24, 0x2D	; 45
    1bac:	91 e0       	ldi	r25, 0x01	; 1
    1bae:	91 83       	std	Z+1, r25	; 0x01
    1bb0:	80 83       	st	Z, r24
    1bb2:	08 95       	ret

00001bb4 <_ZN7TwoWire5beginEv>:
    1bb4:	10 92 52 02 	sts	0x0252, r1	; 0x800252 <_ZN7TwoWire13rxBufferIndexE>
    1bb8:	10 92 51 02 	sts	0x0251, r1	; 0x800251 <_ZN7TwoWire14rxBufferLengthE>
    1bbc:	10 92 2f 02 	sts	0x022F, r1	; 0x80022f <_ZN7TwoWire13txBufferIndexE>
    1bc0:	10 92 2e 02 	sts	0x022E, r1	; 0x80022e <_ZN7TwoWire14txBufferLengthE>
    1bc4:	0e 94 de 0a 	call	0x15bc	; 0x15bc <twi_init>
    1bc8:	82 e6       	ldi	r24, 0x62	; 98
    1bca:	9d e0       	ldi	r25, 0x0D	; 13
    1bcc:	0e 94 c7 0b 	call	0x178e	; 0x178e <twi_attachSlaveTxEvent>
    1bd0:	88 e3       	ldi	r24, 0x38	; 56
    1bd2:	9d e0       	ldi	r25, 0x0D	; 13
    1bd4:	0c 94 c2 0b 	jmp	0x1784	; 0x1784 <twi_attachSlaveRxEvent>

00001bd8 <_ZN7TwoWire17beginTransmissionEh>:
    1bd8:	81 e0       	ldi	r24, 0x01	; 1
    1bda:	80 93 2d 02 	sts	0x022D, r24	; 0x80022d <_ZN7TwoWire12transmittingE>
    1bde:	60 93 50 02 	sts	0x0250, r22	; 0x800250 <_ZN7TwoWire9txAddressE>
    1be2:	10 92 2f 02 	sts	0x022F, r1	; 0x80022f <_ZN7TwoWire13txBufferIndexE>
    1be6:	10 92 2e 02 	sts	0x022E, r1	; 0x80022e <_ZN7TwoWire14txBufferLengthE>
    1bea:	08 95       	ret

00001bec <_ZN7TwoWire17beginTransmissionEi>:
    1bec:	0c 94 ec 0d 	jmp	0x1bd8	; 0x1bd8 <_ZN7TwoWire17beginTransmissionEh>

00001bf0 <_ZN7TwoWire15endTransmissionEh>:
    1bf0:	0f 93       	push	r16
    1bf2:	06 2f       	mov	r16, r22
    1bf4:	21 e0       	ldi	r18, 0x01	; 1
    1bf6:	40 91 2e 02 	lds	r20, 0x022E	; 0x80022e <_ZN7TwoWire14txBufferLengthE>
    1bfa:	60 e3       	ldi	r22, 0x30	; 48
    1bfc:	72 e0       	ldi	r23, 0x02	; 2
    1bfe:	80 91 50 02 	lds	r24, 0x0250	; 0x800250 <_ZN7TwoWire9txAddressE>
    1c02:	0e 94 44 0b 	call	0x1688	; 0x1688 <twi_writeTo>
    1c06:	10 92 2f 02 	sts	0x022F, r1	; 0x80022f <_ZN7TwoWire13txBufferIndexE>
    1c0a:	10 92 2e 02 	sts	0x022E, r1	; 0x80022e <_ZN7TwoWire14txBufferLengthE>
    1c0e:	10 92 2d 02 	sts	0x022D, r1	; 0x80022d <_ZN7TwoWire12transmittingE>
    1c12:	0f 91       	pop	r16
    1c14:	08 95       	ret

00001c16 <_ZN7TwoWire11requestFromEhhmhh>:
    1c16:	4f 92       	push	r4
    1c18:	5f 92       	push	r5
    1c1a:	6f 92       	push	r6
    1c1c:	7f 92       	push	r7
    1c1e:	af 92       	push	r10
    1c20:	bf 92       	push	r11
    1c22:	cf 92       	push	r12
    1c24:	ef 92       	push	r14
    1c26:	ff 92       	push	r15
    1c28:	0f 93       	push	r16
    1c2a:	1f 93       	push	r17
    1c2c:	cf 93       	push	r28
    1c2e:	df 93       	push	r29
    1c30:	5c 01       	movw	r10, r24
    1c32:	f6 2e       	mov	r15, r22
    1c34:	d4 2f       	mov	r29, r20
    1c36:	28 01       	movw	r4, r16
    1c38:	39 01       	movw	r6, r18
    1c3a:	ee 20       	and	r14, r14
    1c3c:	21 f1       	breq	.+72     	; 0x1c86 <_ZN7TwoWire11requestFromEhhmhh+0x70>
    1c3e:	0e 94 ec 0d 	call	0x1bd8	; 0x1bd8 <_ZN7TwoWire17beginTransmissionEh>
    1c42:	ce 2d       	mov	r28, r14
    1c44:	c4 30       	cpi	r28, 0x04	; 4
    1c46:	08 f0       	brcs	.+2      	; 0x1c4a <_ZN7TwoWire11requestFromEhhmhh+0x34>
    1c48:	c3 e0       	ldi	r28, 0x03	; 3
    1c4a:	c1 50       	subi	r28, 0x01	; 1
    1c4c:	c0 f0       	brcs	.+48     	; 0x1c7e <_ZN7TwoWire11requestFromEhhmhh+0x68>
    1c4e:	28 e0       	ldi	r18, 0x08	; 8
    1c50:	c2 9f       	mul	r28, r18
    1c52:	c0 01       	movw	r24, r0
    1c54:	11 24       	eor	r1, r1
    1c56:	a3 01       	movw	r20, r6
    1c58:	92 01       	movw	r18, r4
    1c5a:	04 c0       	rjmp	.+8      	; 0x1c64 <_ZN7TwoWire11requestFromEhhmhh+0x4e>
    1c5c:	56 95       	lsr	r21
    1c5e:	47 95       	ror	r20
    1c60:	37 95       	ror	r19
    1c62:	27 95       	ror	r18
    1c64:	8a 95       	dec	r24
    1c66:	d2 f7       	brpl	.-12     	; 0x1c5c <_ZN7TwoWire11requestFromEhhmhh+0x46>
    1c68:	ca 01       	movw	r24, r20
    1c6a:	b9 01       	movw	r22, r18
    1c6c:	d5 01       	movw	r26, r10
    1c6e:	ed 91       	ld	r30, X+
    1c70:	fc 91       	ld	r31, X
    1c72:	01 90       	ld	r0, Z+
    1c74:	f0 81       	ld	r31, Z
    1c76:	e0 2d       	mov	r30, r0
    1c78:	c5 01       	movw	r24, r10
    1c7a:	09 95       	icall
    1c7c:	e6 cf       	rjmp	.-52     	; 0x1c4a <_ZN7TwoWire11requestFromEhhmhh+0x34>
    1c7e:	60 e0       	ldi	r22, 0x00	; 0
    1c80:	c5 01       	movw	r24, r10
    1c82:	0e 94 f8 0d 	call	0x1bf0	; 0x1bf0 <_ZN7TwoWire15endTransmissionEh>
    1c86:	4d 2f       	mov	r20, r29
    1c88:	d1 32       	cpi	r29, 0x21	; 33
    1c8a:	08 f0       	brcs	.+2      	; 0x1c8e <_ZN7TwoWire11requestFromEhhmhh+0x78>
    1c8c:	40 e2       	ldi	r20, 0x20	; 32
    1c8e:	2c 2d       	mov	r18, r12
    1c90:	63 e5       	ldi	r22, 0x53	; 83
    1c92:	72 e0       	ldi	r23, 0x02	; 2
    1c94:	8f 2d       	mov	r24, r15
    1c96:	0e 94 fc 0a 	call	0x15f8	; 0x15f8 <twi_readFrom>
    1c9a:	10 92 52 02 	sts	0x0252, r1	; 0x800252 <_ZN7TwoWire13rxBufferIndexE>
    1c9e:	80 93 51 02 	sts	0x0251, r24	; 0x800251 <_ZN7TwoWire14rxBufferLengthE>
    1ca2:	df 91       	pop	r29
    1ca4:	cf 91       	pop	r28
    1ca6:	1f 91       	pop	r17
    1ca8:	0f 91       	pop	r16
    1caa:	ff 90       	pop	r15
    1cac:	ef 90       	pop	r14
    1cae:	cf 90       	pop	r12
    1cb0:	bf 90       	pop	r11
    1cb2:	af 90       	pop	r10
    1cb4:	7f 90       	pop	r7
    1cb6:	6f 90       	pop	r6
    1cb8:	5f 90       	pop	r5
    1cba:	4f 90       	pop	r4
    1cbc:	08 95       	ret

00001cbe <_ZN7TwoWire11requestFromEhhh>:
    1cbe:	cf 92       	push	r12
    1cc0:	ef 92       	push	r14
    1cc2:	0f 93       	push	r16
    1cc4:	1f 93       	push	r17
    1cc6:	c2 2e       	mov	r12, r18
    1cc8:	e1 2c       	mov	r14, r1
    1cca:	00 e0       	ldi	r16, 0x00	; 0
    1ccc:	10 e0       	ldi	r17, 0x00	; 0
    1cce:	98 01       	movw	r18, r16
    1cd0:	0e 94 0b 0e 	call	0x1c16	; 0x1c16 <_ZN7TwoWire11requestFromEhhmhh>
    1cd4:	1f 91       	pop	r17
    1cd6:	0f 91       	pop	r16
    1cd8:	ef 90       	pop	r14
    1cda:	cf 90       	pop	r12
    1cdc:	08 95       	ret

00001cde <_ZN7TwoWire11requestFromEhh>:
    1cde:	21 e0       	ldi	r18, 0x01	; 1
    1ce0:	0c 94 5f 0e 	jmp	0x1cbe	; 0x1cbe <_ZN7TwoWire11requestFromEhhh>

00001ce4 <_ZN7TwoWire11requestFromEii>:
    1ce4:	21 e0       	ldi	r18, 0x01	; 1
    1ce6:	0c 94 5f 0e 	jmp	0x1cbe	; 0x1cbe <_ZN7TwoWire11requestFromEhhh>

00001cea <_ZN7TwoWire15endTransmissionEv>:
    1cea:	61 e0       	ldi	r22, 0x01	; 1
    1cec:	0c 94 f8 0d 	jmp	0x1bf0	; 0x1bf0 <_ZN7TwoWire15endTransmissionEh>

00001cf0 <_GLOBAL__sub_I__ZN7TwoWire8rxBufferE>:
}

// Preinstantiate Objects //////////////////////////////////////////////////////

TwoWire Wire = TwoWire();
    1cf0:	8d e1       	ldi	r24, 0x1D	; 29
    1cf2:	92 e0       	ldi	r25, 0x02	; 2
    1cf4:	0c 94 ca 0d 	jmp	0x1b94	; 0x1b94 <_ZN7TwoWireC1Ev>

00001cf8 <__fixsfsi>:
    1cf8:	0e 94 83 0e 	call	0x1d06	; 0x1d06 <__fixunssfsi>
    1cfc:	68 94       	set
    1cfe:	b1 11       	cpse	r27, r1
    1d00:	0c 94 12 0f 	jmp	0x1e24	; 0x1e24 <__fp_szero>
    1d04:	08 95       	ret

00001d06 <__fixunssfsi>:
    1d06:	0e 94 f7 0e 	call	0x1dee	; 0x1dee <__fp_splitA>
    1d0a:	88 f0       	brcs	.+34     	; 0x1d2e <__fixunssfsi+0x28>
    1d0c:	9f 57       	subi	r25, 0x7F	; 127
    1d0e:	98 f0       	brcs	.+38     	; 0x1d36 <__fixunssfsi+0x30>
    1d10:	b9 2f       	mov	r27, r25
    1d12:	99 27       	eor	r25, r25
    1d14:	b7 51       	subi	r27, 0x17	; 23
    1d16:	b0 f0       	brcs	.+44     	; 0x1d44 <__fixunssfsi+0x3e>
    1d18:	e1 f0       	breq	.+56     	; 0x1d52 <__fixunssfsi+0x4c>
    1d1a:	66 0f       	add	r22, r22
    1d1c:	77 1f       	adc	r23, r23
    1d1e:	88 1f       	adc	r24, r24
    1d20:	99 1f       	adc	r25, r25
    1d22:	1a f0       	brmi	.+6      	; 0x1d2a <__fixunssfsi+0x24>
    1d24:	ba 95       	dec	r27
    1d26:	c9 f7       	brne	.-14     	; 0x1d1a <__fixunssfsi+0x14>
    1d28:	14 c0       	rjmp	.+40     	; 0x1d52 <__fixunssfsi+0x4c>
    1d2a:	b1 30       	cpi	r27, 0x01	; 1
    1d2c:	91 f0       	breq	.+36     	; 0x1d52 <__fixunssfsi+0x4c>
    1d2e:	0e 94 11 0f 	call	0x1e22	; 0x1e22 <__fp_zero>
    1d32:	b1 e0       	ldi	r27, 0x01	; 1
    1d34:	08 95       	ret
    1d36:	0c 94 11 0f 	jmp	0x1e22	; 0x1e22 <__fp_zero>
    1d3a:	67 2f       	mov	r22, r23
    1d3c:	78 2f       	mov	r23, r24
    1d3e:	88 27       	eor	r24, r24
    1d40:	b8 5f       	subi	r27, 0xF8	; 248
    1d42:	39 f0       	breq	.+14     	; 0x1d52 <__fixunssfsi+0x4c>
    1d44:	b9 3f       	cpi	r27, 0xF9	; 249
    1d46:	cc f3       	brlt	.-14     	; 0x1d3a <__fixunssfsi+0x34>
    1d48:	86 95       	lsr	r24
    1d4a:	77 95       	ror	r23
    1d4c:	67 95       	ror	r22
    1d4e:	b3 95       	inc	r27
    1d50:	d9 f7       	brne	.-10     	; 0x1d48 <__fixunssfsi+0x42>
    1d52:	3e f4       	brtc	.+14     	; 0x1d62 <__fixunssfsi+0x5c>
    1d54:	90 95       	com	r25
    1d56:	80 95       	com	r24
    1d58:	70 95       	com	r23
    1d5a:	61 95       	neg	r22
    1d5c:	7f 4f       	sbci	r23, 0xFF	; 255
    1d5e:	8f 4f       	sbci	r24, 0xFF	; 255
    1d60:	9f 4f       	sbci	r25, 0xFF	; 255
    1d62:	08 95       	ret

00001d64 <__floatunsisf>:
    1d64:	e8 94       	clt
    1d66:	09 c0       	rjmp	.+18     	; 0x1d7a <__floatsisf+0x12>

00001d68 <__floatsisf>:
    1d68:	97 fb       	bst	r25, 7
    1d6a:	3e f4       	brtc	.+14     	; 0x1d7a <__floatsisf+0x12>
    1d6c:	90 95       	com	r25
    1d6e:	80 95       	com	r24
    1d70:	70 95       	com	r23
    1d72:	61 95       	neg	r22
    1d74:	7f 4f       	sbci	r23, 0xFF	; 255
    1d76:	8f 4f       	sbci	r24, 0xFF	; 255
    1d78:	9f 4f       	sbci	r25, 0xFF	; 255
    1d7a:	99 23       	and	r25, r25
    1d7c:	a9 f0       	breq	.+42     	; 0x1da8 <__floatsisf+0x40>
    1d7e:	f9 2f       	mov	r31, r25
    1d80:	96 e9       	ldi	r25, 0x96	; 150
    1d82:	bb 27       	eor	r27, r27
    1d84:	93 95       	inc	r25
    1d86:	f6 95       	lsr	r31
    1d88:	87 95       	ror	r24
    1d8a:	77 95       	ror	r23
    1d8c:	67 95       	ror	r22
    1d8e:	b7 95       	ror	r27
    1d90:	f1 11       	cpse	r31, r1
    1d92:	f8 cf       	rjmp	.-16     	; 0x1d84 <__floatsisf+0x1c>
    1d94:	fa f4       	brpl	.+62     	; 0x1dd4 <__floatsisf+0x6c>
    1d96:	bb 0f       	add	r27, r27
    1d98:	11 f4       	brne	.+4      	; 0x1d9e <__floatsisf+0x36>
    1d9a:	60 ff       	sbrs	r22, 0
    1d9c:	1b c0       	rjmp	.+54     	; 0x1dd4 <__floatsisf+0x6c>
    1d9e:	6f 5f       	subi	r22, 0xFF	; 255
    1da0:	7f 4f       	sbci	r23, 0xFF	; 255
    1da2:	8f 4f       	sbci	r24, 0xFF	; 255
    1da4:	9f 4f       	sbci	r25, 0xFF	; 255
    1da6:	16 c0       	rjmp	.+44     	; 0x1dd4 <__floatsisf+0x6c>
    1da8:	88 23       	and	r24, r24
    1daa:	11 f0       	breq	.+4      	; 0x1db0 <__floatsisf+0x48>
    1dac:	96 e9       	ldi	r25, 0x96	; 150
    1dae:	11 c0       	rjmp	.+34     	; 0x1dd2 <__floatsisf+0x6a>
    1db0:	77 23       	and	r23, r23
    1db2:	21 f0       	breq	.+8      	; 0x1dbc <__floatsisf+0x54>
    1db4:	9e e8       	ldi	r25, 0x8E	; 142
    1db6:	87 2f       	mov	r24, r23
    1db8:	76 2f       	mov	r23, r22
    1dba:	05 c0       	rjmp	.+10     	; 0x1dc6 <__floatsisf+0x5e>
    1dbc:	66 23       	and	r22, r22
    1dbe:	71 f0       	breq	.+28     	; 0x1ddc <__floatsisf+0x74>
    1dc0:	96 e8       	ldi	r25, 0x86	; 134
    1dc2:	86 2f       	mov	r24, r22
    1dc4:	70 e0       	ldi	r23, 0x00	; 0
    1dc6:	60 e0       	ldi	r22, 0x00	; 0
    1dc8:	2a f0       	brmi	.+10     	; 0x1dd4 <__floatsisf+0x6c>
    1dca:	9a 95       	dec	r25
    1dcc:	66 0f       	add	r22, r22
    1dce:	77 1f       	adc	r23, r23
    1dd0:	88 1f       	adc	r24, r24
    1dd2:	da f7       	brpl	.-10     	; 0x1dca <__floatsisf+0x62>
    1dd4:	88 0f       	add	r24, r24
    1dd6:	96 95       	lsr	r25
    1dd8:	87 95       	ror	r24
    1dda:	97 f9       	bld	r25, 7
    1ddc:	08 95       	ret

00001dde <__fp_split3>:
    1dde:	57 fd       	sbrc	r21, 7
    1de0:	90 58       	subi	r25, 0x80	; 128
    1de2:	44 0f       	add	r20, r20
    1de4:	55 1f       	adc	r21, r21
    1de6:	59 f0       	breq	.+22     	; 0x1dfe <__fp_splitA+0x10>
    1de8:	5f 3f       	cpi	r21, 0xFF	; 255
    1dea:	71 f0       	breq	.+28     	; 0x1e08 <__fp_splitA+0x1a>
    1dec:	47 95       	ror	r20

00001dee <__fp_splitA>:
    1dee:	88 0f       	add	r24, r24
    1df0:	97 fb       	bst	r25, 7
    1df2:	99 1f       	adc	r25, r25
    1df4:	61 f0       	breq	.+24     	; 0x1e0e <__fp_splitA+0x20>
    1df6:	9f 3f       	cpi	r25, 0xFF	; 255
    1df8:	79 f0       	breq	.+30     	; 0x1e18 <__fp_splitA+0x2a>
    1dfa:	87 95       	ror	r24
    1dfc:	08 95       	ret
    1dfe:	12 16       	cp	r1, r18
    1e00:	13 06       	cpc	r1, r19
    1e02:	14 06       	cpc	r1, r20
    1e04:	55 1f       	adc	r21, r21
    1e06:	f2 cf       	rjmp	.-28     	; 0x1dec <__fp_split3+0xe>
    1e08:	46 95       	lsr	r20
    1e0a:	f1 df       	rcall	.-30     	; 0x1dee <__fp_splitA>
    1e0c:	08 c0       	rjmp	.+16     	; 0x1e1e <__fp_splitA+0x30>
    1e0e:	16 16       	cp	r1, r22
    1e10:	17 06       	cpc	r1, r23
    1e12:	18 06       	cpc	r1, r24
    1e14:	99 1f       	adc	r25, r25
    1e16:	f1 cf       	rjmp	.-30     	; 0x1dfa <__fp_splitA+0xc>
    1e18:	86 95       	lsr	r24
    1e1a:	71 05       	cpc	r23, r1
    1e1c:	61 05       	cpc	r22, r1
    1e1e:	08 94       	sec
    1e20:	08 95       	ret

00001e22 <__fp_zero>:
    1e22:	e8 94       	clt

00001e24 <__fp_szero>:
    1e24:	bb 27       	eor	r27, r27
    1e26:	66 27       	eor	r22, r22
    1e28:	77 27       	eor	r23, r23
    1e2a:	cb 01       	movw	r24, r22
    1e2c:	97 f9       	bld	r25, 7
    1e2e:	08 95       	ret

00001e30 <__mulsf3>:
    1e30:	0e 94 2b 0f 	call	0x1e56	; 0x1e56 <__mulsf3x>
    1e34:	0c 94 9c 0f 	jmp	0x1f38	; 0x1f38 <__fp_round>
    1e38:	0e 94 8e 0f 	call	0x1f1c	; 0x1f1c <__fp_pscA>
    1e3c:	38 f0       	brcs	.+14     	; 0x1e4c <__mulsf3+0x1c>
    1e3e:	0e 94 95 0f 	call	0x1f2a	; 0x1f2a <__fp_pscB>
    1e42:	20 f0       	brcs	.+8      	; 0x1e4c <__mulsf3+0x1c>
    1e44:	95 23       	and	r25, r21
    1e46:	11 f0       	breq	.+4      	; 0x1e4c <__mulsf3+0x1c>
    1e48:	0c 94 85 0f 	jmp	0x1f0a	; 0x1f0a <__fp_inf>
    1e4c:	0c 94 8b 0f 	jmp	0x1f16	; 0x1f16 <__fp_nan>
    1e50:	11 24       	eor	r1, r1
    1e52:	0c 94 12 0f 	jmp	0x1e24	; 0x1e24 <__fp_szero>

00001e56 <__mulsf3x>:
    1e56:	0e 94 ef 0e 	call	0x1dde	; 0x1dde <__fp_split3>
    1e5a:	70 f3       	brcs	.-36     	; 0x1e38 <__mulsf3+0x8>

00001e5c <__mulsf3_pse>:
    1e5c:	95 9f       	mul	r25, r21
    1e5e:	c1 f3       	breq	.-16     	; 0x1e50 <__mulsf3+0x20>
    1e60:	95 0f       	add	r25, r21
    1e62:	50 e0       	ldi	r21, 0x00	; 0
    1e64:	55 1f       	adc	r21, r21
    1e66:	62 9f       	mul	r22, r18
    1e68:	f0 01       	movw	r30, r0
    1e6a:	72 9f       	mul	r23, r18
    1e6c:	bb 27       	eor	r27, r27
    1e6e:	f0 0d       	add	r31, r0
    1e70:	b1 1d       	adc	r27, r1
    1e72:	63 9f       	mul	r22, r19
    1e74:	aa 27       	eor	r26, r26
    1e76:	f0 0d       	add	r31, r0
    1e78:	b1 1d       	adc	r27, r1
    1e7a:	aa 1f       	adc	r26, r26
    1e7c:	64 9f       	mul	r22, r20
    1e7e:	66 27       	eor	r22, r22
    1e80:	b0 0d       	add	r27, r0
    1e82:	a1 1d       	adc	r26, r1
    1e84:	66 1f       	adc	r22, r22
    1e86:	82 9f       	mul	r24, r18
    1e88:	22 27       	eor	r18, r18
    1e8a:	b0 0d       	add	r27, r0
    1e8c:	a1 1d       	adc	r26, r1
    1e8e:	62 1f       	adc	r22, r18
    1e90:	73 9f       	mul	r23, r19
    1e92:	b0 0d       	add	r27, r0
    1e94:	a1 1d       	adc	r26, r1
    1e96:	62 1f       	adc	r22, r18
    1e98:	83 9f       	mul	r24, r19
    1e9a:	a0 0d       	add	r26, r0
    1e9c:	61 1d       	adc	r22, r1
    1e9e:	22 1f       	adc	r18, r18
    1ea0:	74 9f       	mul	r23, r20
    1ea2:	33 27       	eor	r19, r19
    1ea4:	a0 0d       	add	r26, r0
    1ea6:	61 1d       	adc	r22, r1
    1ea8:	23 1f       	adc	r18, r19
    1eaa:	84 9f       	mul	r24, r20
    1eac:	60 0d       	add	r22, r0
    1eae:	21 1d       	adc	r18, r1
    1eb0:	82 2f       	mov	r24, r18
    1eb2:	76 2f       	mov	r23, r22
    1eb4:	6a 2f       	mov	r22, r26
    1eb6:	11 24       	eor	r1, r1
    1eb8:	9f 57       	subi	r25, 0x7F	; 127
    1eba:	50 40       	sbci	r21, 0x00	; 0
    1ebc:	9a f0       	brmi	.+38     	; 0x1ee4 <__mulsf3_pse+0x88>
    1ebe:	f1 f0       	breq	.+60     	; 0x1efc <__mulsf3_pse+0xa0>
    1ec0:	88 23       	and	r24, r24
    1ec2:	4a f0       	brmi	.+18     	; 0x1ed6 <__mulsf3_pse+0x7a>
    1ec4:	ee 0f       	add	r30, r30
    1ec6:	ff 1f       	adc	r31, r31
    1ec8:	bb 1f       	adc	r27, r27
    1eca:	66 1f       	adc	r22, r22
    1ecc:	77 1f       	adc	r23, r23
    1ece:	88 1f       	adc	r24, r24
    1ed0:	91 50       	subi	r25, 0x01	; 1
    1ed2:	50 40       	sbci	r21, 0x00	; 0
    1ed4:	a9 f7       	brne	.-22     	; 0x1ec0 <__mulsf3_pse+0x64>
    1ed6:	9e 3f       	cpi	r25, 0xFE	; 254
    1ed8:	51 05       	cpc	r21, r1
    1eda:	80 f0       	brcs	.+32     	; 0x1efc <__mulsf3_pse+0xa0>
    1edc:	0c 94 85 0f 	jmp	0x1f0a	; 0x1f0a <__fp_inf>
    1ee0:	0c 94 12 0f 	jmp	0x1e24	; 0x1e24 <__fp_szero>
    1ee4:	5f 3f       	cpi	r21, 0xFF	; 255
    1ee6:	e4 f3       	brlt	.-8      	; 0x1ee0 <__mulsf3_pse+0x84>
    1ee8:	98 3e       	cpi	r25, 0xE8	; 232
    1eea:	d4 f3       	brlt	.-12     	; 0x1ee0 <__mulsf3_pse+0x84>
    1eec:	86 95       	lsr	r24
    1eee:	77 95       	ror	r23
    1ef0:	67 95       	ror	r22
    1ef2:	b7 95       	ror	r27
    1ef4:	f7 95       	ror	r31
    1ef6:	e7 95       	ror	r30
    1ef8:	9f 5f       	subi	r25, 0xFF	; 255
    1efa:	c1 f7       	brne	.-16     	; 0x1eec <__mulsf3_pse+0x90>
    1efc:	fe 2b       	or	r31, r30
    1efe:	88 0f       	add	r24, r24
    1f00:	91 1d       	adc	r25, r1
    1f02:	96 95       	lsr	r25
    1f04:	87 95       	ror	r24
    1f06:	97 f9       	bld	r25, 7
    1f08:	08 95       	ret

00001f0a <__fp_inf>:
    1f0a:	97 f9       	bld	r25, 7
    1f0c:	9f 67       	ori	r25, 0x7F	; 127
    1f0e:	80 e8       	ldi	r24, 0x80	; 128
    1f10:	70 e0       	ldi	r23, 0x00	; 0
    1f12:	60 e0       	ldi	r22, 0x00	; 0
    1f14:	08 95       	ret

00001f16 <__fp_nan>:
    1f16:	9f ef       	ldi	r25, 0xFF	; 255
    1f18:	80 ec       	ldi	r24, 0xC0	; 192
    1f1a:	08 95       	ret

00001f1c <__fp_pscA>:
    1f1c:	00 24       	eor	r0, r0
    1f1e:	0a 94       	dec	r0
    1f20:	16 16       	cp	r1, r22
    1f22:	17 06       	cpc	r1, r23
    1f24:	18 06       	cpc	r1, r24
    1f26:	09 06       	cpc	r0, r25
    1f28:	08 95       	ret

00001f2a <__fp_pscB>:
    1f2a:	00 24       	eor	r0, r0
    1f2c:	0a 94       	dec	r0
    1f2e:	12 16       	cp	r1, r18
    1f30:	13 06       	cpc	r1, r19
    1f32:	14 06       	cpc	r1, r20
    1f34:	05 06       	cpc	r0, r21
    1f36:	08 95       	ret

00001f38 <__fp_round>:
    1f38:	09 2e       	mov	r0, r25
    1f3a:	03 94       	inc	r0
    1f3c:	00 0c       	add	r0, r0
    1f3e:	11 f4       	brne	.+4      	; 0x1f44 <__fp_round+0xc>
    1f40:	88 23       	and	r24, r24
    1f42:	52 f0       	brmi	.+20     	; 0x1f58 <__fp_round+0x20>
    1f44:	bb 0f       	add	r27, r27
    1f46:	40 f4       	brcc	.+16     	; 0x1f58 <__fp_round+0x20>
    1f48:	bf 2b       	or	r27, r31
    1f4a:	11 f4       	brne	.+4      	; 0x1f50 <__fp_round+0x18>
    1f4c:	60 ff       	sbrs	r22, 0
    1f4e:	04 c0       	rjmp	.+8      	; 0x1f58 <__fp_round+0x20>
    1f50:	6f 5f       	subi	r22, 0xFF	; 255
    1f52:	7f 4f       	sbci	r23, 0xFF	; 255
    1f54:	8f 4f       	sbci	r24, 0xFF	; 255
    1f56:	9f 4f       	sbci	r25, 0xFF	; 255
    1f58:	08 95       	ret

00001f5a <initVariant>:
    1f5a:	08 95       	ret

00001f5c <main>:
void setupUSB() __attribute__((weak));
void setupUSB() { }

int main(void)
{
	init();
    1f5c:	0e 94 a1 10 	call	0x2142	; 0x2142 <init>

	initVariant();
    1f60:	0e 94 ad 0f 	call	0x1f5a	; 0x1f5a <initVariant>

#if defined(USBCON)
	USBDevice.attach();
#endif
	
	setup();
    1f64:	0e 94 54 05 	call	0xaa8	; 0xaa8 <setup>
    
	for (;;) {
		loop();
		if (serialEventRun) serialEventRun();
    1f68:	c0 e0       	ldi	r28, 0x00	; 0
    1f6a:	d0 e0       	ldi	r29, 0x00	; 0
#endif
	
	setup();
    
	for (;;) {
		loop();
    1f6c:	0e 94 57 08 	call	0x10ae	; 0x10ae <loop>
		if (serialEventRun) serialEventRun();
    1f70:	20 97       	sbiw	r28, 0x00	; 0
    1f72:	e1 f3       	breq	.-8      	; 0x1f6c <main+0x10>
    1f74:	0e 94 00 00 	call	0	; 0x0 <__vectors>
    1f78:	f9 cf       	rjmp	.-14     	; 0x1f6c <main+0x10>

00001f7a <_Znwj>:
    1f7a:	0c 94 02 12 	jmp	0x2404	; 0x2404 <malloc>

00001f7e <nothing>:
#include <avr/pgmspace.h>
#include <stdio.h>

#include "wiring_private.h"

static void nothing(void) {
    1f7e:	08 95       	ret

00001f80 <attachInterrupt>:
#endif
};
// volatile static voidFuncPtr twiIntFunc;

void attachInterrupt(uint8_t interruptNum, void (*userFunc)(void), int mode) {
  if(interruptNum < EXTERNAL_NUM_INTERRUPTS) {
    1f80:	82 30       	cpi	r24, 0x02	; 2
    1f82:	e8 f4       	brcc	.+58     	; 0x1fbe <attachInterrupt+0x3e>
    intFunc[interruptNum] = userFunc;
    1f84:	e8 2f       	mov	r30, r24
    1f86:	f0 e0       	ldi	r31, 0x00	; 0
    1f88:	ee 0f       	add	r30, r30
    1f8a:	ff 1f       	adc	r31, r31
    1f8c:	ec 5d       	subi	r30, 0xDC	; 220
    1f8e:	fe 4f       	sbci	r31, 0xFE	; 254
    1f90:	71 83       	std	Z+1, r23	; 0x01
    1f92:	60 83       	st	Z, r22
    // to the configuration bits in the hardware register, so we simply shift
    // the mode into place.
      
    // Enable the interrupt.
      
    switch (interruptNum) {
    1f94:	81 30       	cpi	r24, 0x01	; 1
    1f96:	41 f0       	breq	.+16     	; 0x1fa8 <attachInterrupt+0x28>
      EIMSK |= (1 << INT7);
      break;
#else		
    case 0:
    #if defined(EICRA) && defined(ISC00) && defined(EIMSK)
      EICRA = (EICRA & ~((1 << ISC00) | (1 << ISC01))) | (mode << ISC00);
    1f98:	80 91 69 00 	lds	r24, 0x0069	; 0x800069 <__TEXT_REGION_LENGTH__+0x7e0069>
    1f9c:	8c 7f       	andi	r24, 0xFC	; 252
    1f9e:	48 2b       	or	r20, r24
    1fa0:	40 93 69 00 	sts	0x0069, r20	; 0x800069 <__TEXT_REGION_LENGTH__+0x7e0069>
      EIMSK |= (1 << INT0);
    1fa4:	e8 9a       	sbi	0x1d, 0	; 29
      MCUCR = (MCUCR & ~((1 << ISC00) | (1 << ISC01))) | (mode << ISC00);
      GIMSK |= (1 << INT0);
    #else
      #error attachInterrupt not finished for this CPU (case 0)
    #endif
      break;
    1fa6:	08 95       	ret

    case 1:
    #if defined(EICRA) && defined(ISC10) && defined(ISC11) && defined(EIMSK)
      EICRA = (EICRA & ~((1 << ISC10) | (1 << ISC11))) | (mode << ISC10);
    1fa8:	80 91 69 00 	lds	r24, 0x0069	; 0x800069 <__TEXT_REGION_LENGTH__+0x7e0069>
    1fac:	83 7f       	andi	r24, 0xF3	; 243
    1fae:	44 0f       	add	r20, r20
    1fb0:	55 1f       	adc	r21, r21
    1fb2:	44 0f       	add	r20, r20
    1fb4:	55 1f       	adc	r21, r21
    1fb6:	48 2b       	or	r20, r24
    1fb8:	40 93 69 00 	sts	0x0069, r20	; 0x800069 <__TEXT_REGION_LENGTH__+0x7e0069>
      EIMSK |= (1 << INT1);
    1fbc:	e9 9a       	sbi	0x1d, 1	; 29
    1fbe:	08 95       	ret

00001fc0 <detachInterrupt>:
    }
  }
}

void detachInterrupt(uint8_t interruptNum) {
  if(interruptNum < EXTERNAL_NUM_INTERRUPTS) {
    1fc0:	82 30       	cpi	r24, 0x02	; 2
    1fc2:	78 f4       	brcc	.+30     	; 0x1fe2 <detachInterrupt+0x22>
    // Disable the interrupt.  (We can't assume that interruptNum is equal
    // to the number of the EIMSK bit to clear, as this isn't true on the 
    // ATmega8.  There, INT0 is 6 and INT1 is 7.)
    switch (interruptNum) {
    1fc4:	81 30       	cpi	r24, 0x01	; 1
    1fc6:	11 f0       	breq	.+4      	; 0x1fcc <detachInterrupt+0xc>
      EIMSK &= ~(1 << INT7);
      break;
#else
    case 0:
    #if defined(EIMSK) && defined(INT0)
      EIMSK &= ~(1 << INT0);
    1fc8:	e8 98       	cbi	0x1d, 0	; 29
    #elif defined(GIMSK) && defined(INT0)
      GIMSK &= ~(1 << INT0);
    #else
      #error detachInterrupt not finished for this cpu
    #endif
      break;
    1fca:	01 c0       	rjmp	.+2      	; 0x1fce <detachInterrupt+0xe>

    case 1:
    #if defined(EIMSK) && defined(INT1)
      EIMSK &= ~(1 << INT1);
    1fcc:	e9 98       	cbi	0x1d, 1	; 29
    #endif
      break;       
#endif
    }
      
    intFunc[interruptNum] = nothing;
    1fce:	e8 2f       	mov	r30, r24
    1fd0:	f0 e0       	ldi	r31, 0x00	; 0
    1fd2:	ee 0f       	add	r30, r30
    1fd4:	ff 1f       	adc	r31, r31
    1fd6:	ec 5d       	subi	r30, 0xDC	; 220
    1fd8:	fe 4f       	sbci	r31, 0xFE	; 254
    1fda:	8f eb       	ldi	r24, 0xBF	; 191
    1fdc:	9f e0       	ldi	r25, 0x0F	; 15
    1fde:	91 83       	std	Z+1, r25	; 0x01
    1fe0:	80 83       	st	Z, r24
    1fe2:	08 95       	ret

00001fe4 <__vector_1>:
IMPLEMENT_ISR(INT6_vect, EXTERNAL_INT_6)
IMPLEMENT_ISR(INT7_vect, EXTERNAL_INT_7)

#else

IMPLEMENT_ISR(INT0_vect, EXTERNAL_INT_0)
    1fe4:	1f 92       	push	r1
    1fe6:	0f 92       	push	r0
    1fe8:	0f b6       	in	r0, 0x3f	; 63
    1fea:	0f 92       	push	r0
    1fec:	11 24       	eor	r1, r1
    1fee:	2f 93       	push	r18
    1ff0:	3f 93       	push	r19
    1ff2:	4f 93       	push	r20
    1ff4:	5f 93       	push	r21
    1ff6:	6f 93       	push	r22
    1ff8:	7f 93       	push	r23
    1ffa:	8f 93       	push	r24
    1ffc:	9f 93       	push	r25
    1ffe:	af 93       	push	r26
    2000:	bf 93       	push	r27
    2002:	ef 93       	push	r30
    2004:	ff 93       	push	r31
    2006:	e0 91 24 01 	lds	r30, 0x0124	; 0x800124 <intFunc>
    200a:	f0 91 25 01 	lds	r31, 0x0125	; 0x800125 <intFunc+0x1>
    200e:	09 95       	icall
    2010:	ff 91       	pop	r31
    2012:	ef 91       	pop	r30
    2014:	bf 91       	pop	r27
    2016:	af 91       	pop	r26
    2018:	9f 91       	pop	r25
    201a:	8f 91       	pop	r24
    201c:	7f 91       	pop	r23
    201e:	6f 91       	pop	r22
    2020:	5f 91       	pop	r21
    2022:	4f 91       	pop	r20
    2024:	3f 91       	pop	r19
    2026:	2f 91       	pop	r18
    2028:	0f 90       	pop	r0
    202a:	0f be       	out	0x3f, r0	; 63
    202c:	0f 90       	pop	r0
    202e:	1f 90       	pop	r1
    2030:	18 95       	reti

00002032 <__vector_2>:
IMPLEMENT_ISR(INT1_vect, EXTERNAL_INT_1)
    2032:	1f 92       	push	r1
    2034:	0f 92       	push	r0
    2036:	0f b6       	in	r0, 0x3f	; 63
    2038:	0f 92       	push	r0
    203a:	11 24       	eor	r1, r1
    203c:	2f 93       	push	r18
    203e:	3f 93       	push	r19
    2040:	4f 93       	push	r20
    2042:	5f 93       	push	r21
    2044:	6f 93       	push	r22
    2046:	7f 93       	push	r23
    2048:	8f 93       	push	r24
    204a:	9f 93       	push	r25
    204c:	af 93       	push	r26
    204e:	bf 93       	push	r27
    2050:	ef 93       	push	r30
    2052:	ff 93       	push	r31
    2054:	e0 91 26 01 	lds	r30, 0x0126	; 0x800126 <intFunc+0x2>
    2058:	f0 91 27 01 	lds	r31, 0x0127	; 0x800127 <intFunc+0x3>
    205c:	09 95       	icall
    205e:	ff 91       	pop	r31
    2060:	ef 91       	pop	r30
    2062:	bf 91       	pop	r27
    2064:	af 91       	pop	r26
    2066:	9f 91       	pop	r25
    2068:	8f 91       	pop	r24
    206a:	7f 91       	pop	r23
    206c:	6f 91       	pop	r22
    206e:	5f 91       	pop	r21
    2070:	4f 91       	pop	r20
    2072:	3f 91       	pop	r19
    2074:	2f 91       	pop	r18
    2076:	0f 90       	pop	r0
    2078:	0f be       	out	0x3f, r0	; 63
    207a:	0f 90       	pop	r0
    207c:	1f 90       	pop	r1
    207e:	18 95       	reti

00002080 <__vector_16>:
		while ( ms > 0 && (micros() - start) >= 1000) {
			ms--;
			start += 1000;
		}
	}
}
    2080:	1f 92       	push	r1
    2082:	0f 92       	push	r0
    2084:	0f b6       	in	r0, 0x3f	; 63
    2086:	0f 92       	push	r0
    2088:	11 24       	eor	r1, r1
    208a:	2f 93       	push	r18
    208c:	3f 93       	push	r19
    208e:	8f 93       	push	r24
    2090:	9f 93       	push	r25
    2092:	af 93       	push	r26
    2094:	bf 93       	push	r27
    2096:	80 91 74 02 	lds	r24, 0x0274	; 0x800274 <timer0_millis>
    209a:	90 91 75 02 	lds	r25, 0x0275	; 0x800275 <timer0_millis+0x1>
    209e:	a0 91 76 02 	lds	r26, 0x0276	; 0x800276 <timer0_millis+0x2>
    20a2:	b0 91 77 02 	lds	r27, 0x0277	; 0x800277 <timer0_millis+0x3>
    20a6:	30 91 73 02 	lds	r19, 0x0273	; 0x800273 <timer0_fract>
    20aa:	23 e0       	ldi	r18, 0x03	; 3
    20ac:	23 0f       	add	r18, r19
    20ae:	2d 37       	cpi	r18, 0x7D	; 125
    20b0:	20 f4       	brcc	.+8      	; 0x20ba <__vector_16+0x3a>
    20b2:	01 96       	adiw	r24, 0x01	; 1
    20b4:	a1 1d       	adc	r26, r1
    20b6:	b1 1d       	adc	r27, r1
    20b8:	05 c0       	rjmp	.+10     	; 0x20c4 <__vector_16+0x44>
    20ba:	26 e8       	ldi	r18, 0x86	; 134
    20bc:	23 0f       	add	r18, r19
    20be:	02 96       	adiw	r24, 0x02	; 2
    20c0:	a1 1d       	adc	r26, r1
    20c2:	b1 1d       	adc	r27, r1
    20c4:	20 93 73 02 	sts	0x0273, r18	; 0x800273 <timer0_fract>
    20c8:	80 93 74 02 	sts	0x0274, r24	; 0x800274 <timer0_millis>
    20cc:	90 93 75 02 	sts	0x0275, r25	; 0x800275 <timer0_millis+0x1>
    20d0:	a0 93 76 02 	sts	0x0276, r26	; 0x800276 <timer0_millis+0x2>
    20d4:	b0 93 77 02 	sts	0x0277, r27	; 0x800277 <timer0_millis+0x3>
    20d8:	80 91 78 02 	lds	r24, 0x0278	; 0x800278 <timer0_overflow_count>
    20dc:	90 91 79 02 	lds	r25, 0x0279	; 0x800279 <timer0_overflow_count+0x1>
    20e0:	a0 91 7a 02 	lds	r26, 0x027A	; 0x80027a <timer0_overflow_count+0x2>
    20e4:	b0 91 7b 02 	lds	r27, 0x027B	; 0x80027b <timer0_overflow_count+0x3>
    20e8:	01 96       	adiw	r24, 0x01	; 1
    20ea:	a1 1d       	adc	r26, r1
    20ec:	b1 1d       	adc	r27, r1
    20ee:	80 93 78 02 	sts	0x0278, r24	; 0x800278 <timer0_overflow_count>
    20f2:	90 93 79 02 	sts	0x0279, r25	; 0x800279 <timer0_overflow_count+0x1>
    20f6:	a0 93 7a 02 	sts	0x027A, r26	; 0x80027a <timer0_overflow_count+0x2>
    20fa:	b0 93 7b 02 	sts	0x027B, r27	; 0x80027b <timer0_overflow_count+0x3>
    20fe:	bf 91       	pop	r27
    2100:	af 91       	pop	r26
    2102:	9f 91       	pop	r25
    2104:	8f 91       	pop	r24
    2106:	3f 91       	pop	r19
    2108:	2f 91       	pop	r18
    210a:	0f 90       	pop	r0
    210c:	0f be       	out	0x3f, r0	; 63
    210e:	0f 90       	pop	r0
    2110:	1f 90       	pop	r1
    2112:	18 95       	reti

00002114 <millis>:
    2114:	2f b7       	in	r18, 0x3f	; 63
    2116:	f8 94       	cli
    2118:	60 91 74 02 	lds	r22, 0x0274	; 0x800274 <timer0_millis>
    211c:	70 91 75 02 	lds	r23, 0x0275	; 0x800275 <timer0_millis+0x1>
    2120:	80 91 76 02 	lds	r24, 0x0276	; 0x800276 <timer0_millis+0x2>
    2124:	90 91 77 02 	lds	r25, 0x0277	; 0x800277 <timer0_millis+0x3>
    2128:	2f bf       	out	0x3f, r18	; 63
    212a:	08 95       	ret

0000212c <delayMicroseconds>:
#elif F_CPU >= 16000000L
	// for the 16 MHz clock on most Arduino boards

	// for a one-microsecond delay, simply return.  the overhead
	// of the function call takes 14 (16) cycles, which is 1us
	if (us <= 1) return; //  = 3 cycles, (4 when true)
    212c:	82 30       	cpi	r24, 0x02	; 2
    212e:	91 05       	cpc	r25, r1
    2130:	38 f0       	brcs	.+14     	; 0x2140 <delayMicroseconds+0x14>

	// the following loop takes 1/4 of a microsecond (4 cycles)
	// per iteration, so execute it four times for each microsecond of
	// delay requested.
	us <<= 2; // x4 us, = 4 cycles
    2132:	88 0f       	add	r24, r24
    2134:	99 1f       	adc	r25, r25
    2136:	88 0f       	add	r24, r24
    2138:	99 1f       	adc	r25, r25

	// account for the time taken in the preceeding commands.
	// we just burned 19 (21) cycles above, remove 5, (5*4=20)
	// us is at least 8 so we can substract 5
	us -= 5; // = 2 cycles,
    213a:	05 97       	sbiw	r24, 0x05	; 5
	

#endif

	// busy wait
	__asm__ __volatile__ (
    213c:	01 97       	sbiw	r24, 0x01	; 1
    213e:	f1 f7       	brne	.-4      	; 0x213c <delayMicroseconds+0x10>
    2140:	08 95       	ret

00002142 <init>:

void init()
{
	// this needs to be called before setup() or some functions won't
	// work there
	sei();
    2142:	78 94       	sei
	
	// on the ATmega168, timer 0 is also used for fast hardware pwm
	// (using phase-correct PWM would mean that timer 0 overflowed half as often
	// resulting in different millis() behavior on the ATmega8 and ATmega168)
#if defined(TCCR0A) && defined(WGM01)
	sbi(TCCR0A, WGM01);
    2144:	84 b5       	in	r24, 0x24	; 36
    2146:	82 60       	ori	r24, 0x02	; 2
    2148:	84 bd       	out	0x24, r24	; 36
	sbi(TCCR0A, WGM00);
    214a:	84 b5       	in	r24, 0x24	; 36
    214c:	81 60       	ori	r24, 0x01	; 1
    214e:	84 bd       	out	0x24, r24	; 36
	// this combination is for the standard atmega8
	sbi(TCCR0, CS01);
	sbi(TCCR0, CS00);
#elif defined(TCCR0B) && defined(CS01) && defined(CS00)
	// this combination is for the standard 168/328/1280/2560
	sbi(TCCR0B, CS01);
    2150:	85 b5       	in	r24, 0x25	; 37
    2152:	82 60       	ori	r24, 0x02	; 2
    2154:	85 bd       	out	0x25, r24	; 37
	sbi(TCCR0B, CS00);
    2156:	85 b5       	in	r24, 0x25	; 37
    2158:	81 60       	ori	r24, 0x01	; 1
    215a:	85 bd       	out	0x25, r24	; 37

	// enable timer 0 overflow interrupt
#if defined(TIMSK) && defined(TOIE0)
	sbi(TIMSK, TOIE0);
#elif defined(TIMSK0) && defined(TOIE0)
	sbi(TIMSK0, TOIE0);
    215c:	ee e6       	ldi	r30, 0x6E	; 110
    215e:	f0 e0       	ldi	r31, 0x00	; 0
    2160:	80 81       	ld	r24, Z
    2162:	81 60       	ori	r24, 0x01	; 1
    2164:	80 83       	st	Z, r24
	// this is better for motors as it ensures an even waveform
	// note, however, that fast pwm mode can achieve a frequency of up
	// 8 MHz (with a 16 MHz clock) at 50% duty cycle

#if defined(TCCR1B) && defined(CS11) && defined(CS10)
	TCCR1B = 0;
    2166:	e1 e8       	ldi	r30, 0x81	; 129
    2168:	f0 e0       	ldi	r31, 0x00	; 0
    216a:	10 82       	st	Z, r1

	// set timer 1 prescale factor to 64
	sbi(TCCR1B, CS11);
    216c:	80 81       	ld	r24, Z
    216e:	82 60       	ori	r24, 0x02	; 2
    2170:	80 83       	st	Z, r24
#if F_CPU >= 8000000L
	sbi(TCCR1B, CS10);
    2172:	80 81       	ld	r24, Z
    2174:	81 60       	ori	r24, 0x01	; 1
    2176:	80 83       	st	Z, r24
	sbi(TCCR1, CS10);
#endif
#endif
	// put timer 1 in 8-bit phase correct pwm mode
#if defined(TCCR1A) && defined(WGM10)
	sbi(TCCR1A, WGM10);
    2178:	e0 e8       	ldi	r30, 0x80	; 128
    217a:	f0 e0       	ldi	r31, 0x00	; 0
    217c:	80 81       	ld	r24, Z
    217e:	81 60       	ori	r24, 0x01	; 1
    2180:	80 83       	st	Z, r24

	// set timer 2 prescale factor to 64
#if defined(TCCR2) && defined(CS22)
	sbi(TCCR2, CS22);
#elif defined(TCCR2B) && defined(CS22)
	sbi(TCCR2B, CS22);
    2182:	e1 eb       	ldi	r30, 0xB1	; 177
    2184:	f0 e0       	ldi	r31, 0x00	; 0
    2186:	80 81       	ld	r24, Z
    2188:	84 60       	ori	r24, 0x04	; 4
    218a:	80 83       	st	Z, r24

	// configure timer 2 for phase correct pwm (8-bit)
#if defined(TCCR2) && defined(WGM20)
	sbi(TCCR2, WGM20);
#elif defined(TCCR2A) && defined(WGM20)
	sbi(TCCR2A, WGM20);
    218c:	e0 eb       	ldi	r30, 0xB0	; 176
    218e:	f0 e0       	ldi	r31, 0x00	; 0
    2190:	80 81       	ld	r24, Z
    2192:	81 60       	ori	r24, 0x01	; 1
    2194:	80 83       	st	Z, r24
#endif

#if defined(ADCSRA)
	// set a2d prescaler so we are inside the desired 50-200 KHz range.
	#if F_CPU >= 16000000 // 16 MHz / 128 = 125 KHz
		sbi(ADCSRA, ADPS2);
    2196:	ea e7       	ldi	r30, 0x7A	; 122
    2198:	f0 e0       	ldi	r31, 0x00	; 0
    219a:	80 81       	ld	r24, Z
    219c:	84 60       	ori	r24, 0x04	; 4
    219e:	80 83       	st	Z, r24
		sbi(ADCSRA, ADPS1);
    21a0:	80 81       	ld	r24, Z
    21a2:	82 60       	ori	r24, 0x02	; 2
    21a4:	80 83       	st	Z, r24
		sbi(ADCSRA, ADPS0);
    21a6:	80 81       	ld	r24, Z
    21a8:	81 60       	ori	r24, 0x01	; 1
    21aa:	80 83       	st	Z, r24
		cbi(ADCSRA, ADPS2);
		cbi(ADCSRA, ADPS1);
		sbi(ADCSRA, ADPS0);
	#endif
	// enable a2d conversions
	sbi(ADCSRA, ADEN);
    21ac:	80 81       	ld	r24, Z
    21ae:	80 68       	ori	r24, 0x80	; 128
    21b0:	80 83       	st	Z, r24
	// here so they can be used as normal digital i/o; they will be
	// reconnected in Serial.begin()
#if defined(UCSRB)
	UCSRB = 0;
#elif defined(UCSR0B)
	UCSR0B = 0;
    21b2:	10 92 c1 00 	sts	0x00C1, r1	; 0x8000c1 <__TEXT_REGION_LENGTH__+0x7e00c1>
    21b6:	08 95       	ret

000021b8 <analogRead>:
#elif defined(__AVR_ATmega32U4__)
	if (pin >= 18) pin -= 18; // allow for channel or pin numbers
#elif defined(__AVR_ATmega1284__) || defined(__AVR_ATmega1284P__) || defined(__AVR_ATmega644__) || defined(__AVR_ATmega644A__) || defined(__AVR_ATmega644P__) || defined(__AVR_ATmega644PA__)
	if (pin >= 24) pin -= 24; // allow for channel or pin numbers
#else
	if (pin >= 14) pin -= 14; // allow for channel or pin numbers
    21b8:	8e 30       	cpi	r24, 0x0E	; 14
    21ba:	08 f0       	brcs	.+2      	; 0x21be <analogRead+0x6>
    21bc:	8e 50       	subi	r24, 0x0E	; 14
	// to 0 (the default).
#if defined(ADMUX)
#if defined(__AVR_ATtiny25__) || defined(__AVR_ATtiny45__) || defined(__AVR_ATtiny85__)
	ADMUX = (analog_reference << 4) | (pin & 0x07);
#else
	ADMUX = (analog_reference << 6) | (pin & 0x07);
    21be:	20 91 28 01 	lds	r18, 0x0128	; 0x800128 <analog_reference>
    21c2:	90 e4       	ldi	r25, 0x40	; 64
    21c4:	29 9f       	mul	r18, r25
    21c6:	90 01       	movw	r18, r0
    21c8:	11 24       	eor	r1, r1
    21ca:	87 70       	andi	r24, 0x07	; 7
    21cc:	82 2b       	or	r24, r18
    21ce:	80 93 7c 00 	sts	0x007C, r24	; 0x80007c <__TEXT_REGION_LENGTH__+0x7e007c>
	// without a delay, we seem to read from the wrong channel
	//delay(1);

#if defined(ADCSRA) && defined(ADCL)
	// start the conversion
	sbi(ADCSRA, ADSC);
    21d2:	80 91 7a 00 	lds	r24, 0x007A	; 0x80007a <__TEXT_REGION_LENGTH__+0x7e007a>
    21d6:	80 64       	ori	r24, 0x40	; 64
    21d8:	80 93 7a 00 	sts	0x007A, r24	; 0x80007a <__TEXT_REGION_LENGTH__+0x7e007a>

	// ADSC is cleared when the conversion finishes
	while (bit_is_set(ADCSRA, ADSC));
    21dc:	80 91 7a 00 	lds	r24, 0x007A	; 0x80007a <__TEXT_REGION_LENGTH__+0x7e007a>
    21e0:	86 fd       	sbrc	r24, 6
    21e2:	fc cf       	rjmp	.-8      	; 0x21dc <analogRead+0x24>

	// we have to read ADCL first; doing so locks both ADCL
	// and ADCH until ADCH is read.  reading ADCL second would
	// cause the results of each conversion to be discarded,
	// as ADCL and ADCH would be locked when it completed.
	low  = ADCL;
    21e4:	80 91 78 00 	lds	r24, 0x0078	; 0x800078 <__TEXT_REGION_LENGTH__+0x7e0078>
	high = ADCH;
    21e8:	20 91 79 00 	lds	r18, 0x0079	; 0x800079 <__TEXT_REGION_LENGTH__+0x7e0079>
	low  = 0;
	high = 0;
#endif

	// combine the two bytes
	return (high << 8) | low;
    21ec:	90 e0       	ldi	r25, 0x00	; 0
}
    21ee:	92 2b       	or	r25, r18
    21f0:	08 95       	ret

000021f2 <turnOffPWM>:
//
//static inline void turnOffPWM(uint8_t timer) __attribute__ ((always_inline));
//static inline void turnOffPWM(uint8_t timer)
static void turnOffPWM(uint8_t timer)
{
	switch (timer)
    21f2:	83 30       	cpi	r24, 0x03	; 3
    21f4:	81 f0       	breq	.+32     	; 0x2216 <turnOffPWM+0x24>
    21f6:	28 f4       	brcc	.+10     	; 0x2202 <turnOffPWM+0x10>
    21f8:	81 30       	cpi	r24, 0x01	; 1
    21fa:	99 f0       	breq	.+38     	; 0x2222 <turnOffPWM+0x30>
    21fc:	82 30       	cpi	r24, 0x02	; 2
    21fe:	a1 f0       	breq	.+40     	; 0x2228 <turnOffPWM+0x36>
    2200:	08 95       	ret
    2202:	87 30       	cpi	r24, 0x07	; 7
    2204:	a9 f0       	breq	.+42     	; 0x2230 <turnOffPWM+0x3e>
    2206:	88 30       	cpi	r24, 0x08	; 8
    2208:	b9 f0       	breq	.+46     	; 0x2238 <turnOffPWM+0x46>
    220a:	84 30       	cpi	r24, 0x04	; 4
    220c:	d1 f4       	brne	.+52     	; 0x2242 <turnOffPWM+0x50>
	{
		#if defined(TCCR1A) && defined(COM1A1)
		case TIMER1A:   cbi(TCCR1A, COM1A1);    break;
		#endif
		#if defined(TCCR1A) && defined(COM1B1)
		case TIMER1B:   cbi(TCCR1A, COM1B1);    break;
    220e:	80 91 80 00 	lds	r24, 0x0080	; 0x800080 <__TEXT_REGION_LENGTH__+0x7e0080>
    2212:	8f 7d       	andi	r24, 0xDF	; 223
    2214:	03 c0       	rjmp	.+6      	; 0x221c <turnOffPWM+0x2a>
static void turnOffPWM(uint8_t timer)
{
	switch (timer)
	{
		#if defined(TCCR1A) && defined(COM1A1)
		case TIMER1A:   cbi(TCCR1A, COM1A1);    break;
    2216:	80 91 80 00 	lds	r24, 0x0080	; 0x800080 <__TEXT_REGION_LENGTH__+0x7e0080>
    221a:	8f 77       	andi	r24, 0x7F	; 127
		#endif
		#if defined(TCCR1A) && defined(COM1B1)
		case TIMER1B:   cbi(TCCR1A, COM1B1);    break;
    221c:	80 93 80 00 	sts	0x0080, r24	; 0x800080 <__TEXT_REGION_LENGTH__+0x7e0080>
    2220:	08 95       	ret
		#if defined(TCCR2) && defined(COM21)
		case  TIMER2:   cbi(TCCR2, COM21);      break;
		#endif
		
		#if defined(TCCR0A) && defined(COM0A1)
		case  TIMER0A:  cbi(TCCR0A, COM0A1);    break;
    2222:	84 b5       	in	r24, 0x24	; 36
    2224:	8f 77       	andi	r24, 0x7F	; 127
    2226:	02 c0       	rjmp	.+4      	; 0x222c <turnOffPWM+0x3a>
		#endif
		
		#if defined(TCCR0A) && defined(COM0B1)
		case  TIMER0B:  cbi(TCCR0A, COM0B1);    break;
    2228:	84 b5       	in	r24, 0x24	; 36
    222a:	8f 7d       	andi	r24, 0xDF	; 223
    222c:	84 bd       	out	0x24, r24	; 36
    222e:	08 95       	ret
		#endif
		#if defined(TCCR2A) && defined(COM2A1)
		case  TIMER2A:  cbi(TCCR2A, COM2A1);    break;
    2230:	80 91 b0 00 	lds	r24, 0x00B0	; 0x8000b0 <__TEXT_REGION_LENGTH__+0x7e00b0>
    2234:	8f 77       	andi	r24, 0x7F	; 127
    2236:	03 c0       	rjmp	.+6      	; 0x223e <turnOffPWM+0x4c>
		#endif
		#if defined(TCCR2A) && defined(COM2B1)
		case  TIMER2B:  cbi(TCCR2A, COM2B1);    break;
    2238:	80 91 b0 00 	lds	r24, 0x00B0	; 0x8000b0 <__TEXT_REGION_LENGTH__+0x7e00b0>
    223c:	8f 7d       	andi	r24, 0xDF	; 223
    223e:	80 93 b0 00 	sts	0x00B0, r24	; 0x8000b0 <__TEXT_REGION_LENGTH__+0x7e00b0>
    2242:	08 95       	ret

00002244 <pinMode>:
#define ARDUINO_MAIN
#include "wiring_private.h"
#include "pins_arduino.h"

void pinMode(uint8_t pin, uint8_t mode)
{
    2244:	cf 93       	push	r28
    2246:	df 93       	push	r29
	uint8_t bit = digitalPinToBitMask(pin);
    2248:	90 e0       	ldi	r25, 0x00	; 0
    224a:	fc 01       	movw	r30, r24
    224c:	e6 53       	subi	r30, 0x36	; 54
    224e:	ff 4f       	sbci	r31, 0xFF	; 255
    2250:	24 91       	lpm	r18, Z
	uint8_t port = digitalPinToPort(pin);
    2252:	fc 01       	movw	r30, r24
    2254:	e2 52       	subi	r30, 0x22	; 34
    2256:	ff 4f       	sbci	r31, 0xFF	; 255
    2258:	84 91       	lpm	r24, Z
	volatile uint8_t *reg, *out;

	if (port == NOT_A_PIN) return;
    225a:	88 23       	and	r24, r24
    225c:	61 f1       	breq	.+88     	; 0x22b6 <pinMode+0x72>

	// JWS: can I let the optimizer do this?
	reg = portModeRegister(port);
    225e:	90 e0       	ldi	r25, 0x00	; 0
    2260:	88 0f       	add	r24, r24
    2262:	99 1f       	adc	r25, r25
    2264:	fc 01       	movw	r30, r24
    2266:	ea 5f       	subi	r30, 0xFA	; 250
    2268:	fe 4f       	sbci	r31, 0xFE	; 254
    226a:	c5 91       	lpm	r28, Z+
    226c:	d4 91       	lpm	r29, Z
	out = portOutputRegister(port);
    226e:	fc 01       	movw	r30, r24
    2270:	e4 50       	subi	r30, 0x04	; 4
    2272:	ff 4f       	sbci	r31, 0xFF	; 255
    2274:	a5 91       	lpm	r26, Z+
    2276:	b4 91       	lpm	r27, Z

	if (mode == INPUT) { 
    2278:	61 11       	cpse	r22, r1
    227a:	09 c0       	rjmp	.+18     	; 0x228e <pinMode+0x4a>
		uint8_t oldSREG = SREG;
    227c:	9f b7       	in	r25, 0x3f	; 63
                cli();
    227e:	f8 94       	cli
		*reg &= ~bit;
    2280:	88 81       	ld	r24, Y
    2282:	20 95       	com	r18
    2284:	82 23       	and	r24, r18
    2286:	88 83       	st	Y, r24
		*out &= ~bit;
    2288:	ec 91       	ld	r30, X
    228a:	2e 23       	and	r18, r30
    228c:	0b c0       	rjmp	.+22     	; 0x22a4 <pinMode+0x60>
		SREG = oldSREG;
	} else if (mode == INPUT_PULLUP) {
    228e:	62 30       	cpi	r22, 0x02	; 2
    2290:	61 f4       	brne	.+24     	; 0x22aa <pinMode+0x66>
		uint8_t oldSREG = SREG;
    2292:	9f b7       	in	r25, 0x3f	; 63
                cli();
    2294:	f8 94       	cli
		*reg &= ~bit;
    2296:	88 81       	ld	r24, Y
    2298:	32 2f       	mov	r19, r18
    229a:	30 95       	com	r19
    229c:	83 23       	and	r24, r19
    229e:	88 83       	st	Y, r24
		*out |= bit;
    22a0:	ec 91       	ld	r30, X
    22a2:	2e 2b       	or	r18, r30
    22a4:	2c 93       	st	X, r18
		SREG = oldSREG;
    22a6:	9f bf       	out	0x3f, r25	; 63
    22a8:	06 c0       	rjmp	.+12     	; 0x22b6 <pinMode+0x72>
	} else {
		uint8_t oldSREG = SREG;
    22aa:	8f b7       	in	r24, 0x3f	; 63
                cli();
    22ac:	f8 94       	cli
		*reg |= bit;
    22ae:	e8 81       	ld	r30, Y
    22b0:	2e 2b       	or	r18, r30
    22b2:	28 83       	st	Y, r18
		SREG = oldSREG;
    22b4:	8f bf       	out	0x3f, r24	; 63
	}
}
    22b6:	df 91       	pop	r29
    22b8:	cf 91       	pop	r28
    22ba:	08 95       	ret

000022bc <digitalWrite>:
		#endif
	}
}

void digitalWrite(uint8_t pin, uint8_t val)
{
    22bc:	1f 93       	push	r17
    22be:	cf 93       	push	r28
    22c0:	df 93       	push	r29
	uint8_t timer = digitalPinToTimer(pin);
    22c2:	28 2f       	mov	r18, r24
    22c4:	30 e0       	ldi	r19, 0x00	; 0
    22c6:	f9 01       	movw	r30, r18
    22c8:	ea 54       	subi	r30, 0x4A	; 74
    22ca:	ff 4f       	sbci	r31, 0xFF	; 255
    22cc:	84 91       	lpm	r24, Z
	uint8_t bit = digitalPinToBitMask(pin);
    22ce:	f9 01       	movw	r30, r18
    22d0:	e6 53       	subi	r30, 0x36	; 54
    22d2:	ff 4f       	sbci	r31, 0xFF	; 255
    22d4:	d4 91       	lpm	r29, Z
	uint8_t port = digitalPinToPort(pin);
    22d6:	f9 01       	movw	r30, r18
    22d8:	e2 52       	subi	r30, 0x22	; 34
    22da:	ff 4f       	sbci	r31, 0xFF	; 255
    22dc:	c4 91       	lpm	r28, Z
	volatile uint8_t *out;

	if (port == NOT_A_PIN) return;
    22de:	cc 23       	and	r28, r28
    22e0:	c1 f0       	breq	.+48     	; 0x2312 <digitalWrite+0x56>
    22e2:	16 2f       	mov	r17, r22

	// If the pin that support PWM output, we need to turn it off
	// before doing a digital write.
	if (timer != NOT_ON_TIMER) turnOffPWM(timer);
    22e4:	81 11       	cpse	r24, r1
    22e6:	0e 94 f9 10 	call	0x21f2	; 0x21f2 <turnOffPWM>

	out = portOutputRegister(port);
    22ea:	ec 2f       	mov	r30, r28
    22ec:	f0 e0       	ldi	r31, 0x00	; 0
    22ee:	ee 0f       	add	r30, r30
    22f0:	ff 1f       	adc	r31, r31
    22f2:	e4 50       	subi	r30, 0x04	; 4
    22f4:	ff 4f       	sbci	r31, 0xFF	; 255
    22f6:	a5 91       	lpm	r26, Z+
    22f8:	b4 91       	lpm	r27, Z

	uint8_t oldSREG = SREG;
    22fa:	9f b7       	in	r25, 0x3f	; 63
	cli();
    22fc:	f8 94       	cli

	if (val == LOW) {
    22fe:	11 11       	cpse	r17, r1
    2300:	04 c0       	rjmp	.+8      	; 0x230a <digitalWrite+0x4e>
		*out &= ~bit;
    2302:	8c 91       	ld	r24, X
    2304:	d0 95       	com	r29
    2306:	d8 23       	and	r29, r24
    2308:	02 c0       	rjmp	.+4      	; 0x230e <digitalWrite+0x52>
	} else {
		*out |= bit;
    230a:	ec 91       	ld	r30, X
    230c:	de 2b       	or	r29, r30
    230e:	dc 93       	st	X, r29
	}

	SREG = oldSREG;
    2310:	9f bf       	out	0x3f, r25	; 63
}
    2312:	df 91       	pop	r29
    2314:	cf 91       	pop	r28
    2316:	1f 91       	pop	r17
    2318:	08 95       	ret

0000231a <digitalRead>:

int digitalRead(uint8_t pin)
{
    231a:	cf 93       	push	r28
    231c:	df 93       	push	r29
	uint8_t timer = digitalPinToTimer(pin);
    231e:	28 2f       	mov	r18, r24
    2320:	30 e0       	ldi	r19, 0x00	; 0
    2322:	f9 01       	movw	r30, r18
    2324:	ea 54       	subi	r30, 0x4A	; 74
    2326:	ff 4f       	sbci	r31, 0xFF	; 255
    2328:	84 91       	lpm	r24, Z
	uint8_t bit = digitalPinToBitMask(pin);
    232a:	f9 01       	movw	r30, r18
    232c:	e6 53       	subi	r30, 0x36	; 54
    232e:	ff 4f       	sbci	r31, 0xFF	; 255
    2330:	d4 91       	lpm	r29, Z
	uint8_t port = digitalPinToPort(pin);
    2332:	f9 01       	movw	r30, r18
    2334:	e2 52       	subi	r30, 0x22	; 34
    2336:	ff 4f       	sbci	r31, 0xFF	; 255
    2338:	c4 91       	lpm	r28, Z

	if (port == NOT_A_PIN) return LOW;
    233a:	cc 23       	and	r28, r28
    233c:	91 f0       	breq	.+36     	; 0x2362 <digitalRead+0x48>

	// If the pin that support PWM output, we need to turn it off
	// before getting a digital reading.
	if (timer != NOT_ON_TIMER) turnOffPWM(timer);
    233e:	81 11       	cpse	r24, r1
    2340:	0e 94 f9 10 	call	0x21f2	; 0x21f2 <turnOffPWM>

	if (*portInputRegister(port) & bit) return HIGH;
    2344:	ec 2f       	mov	r30, r28
    2346:	f0 e0       	ldi	r31, 0x00	; 0
    2348:	ee 0f       	add	r30, r30
    234a:	ff 1f       	adc	r31, r31
    234c:	ee 50       	subi	r30, 0x0E	; 14
    234e:	ff 4f       	sbci	r31, 0xFF	; 255
    2350:	a5 91       	lpm	r26, Z+
    2352:	b4 91       	lpm	r27, Z
    2354:	ec 91       	ld	r30, X
{
	uint8_t timer = digitalPinToTimer(pin);
	uint8_t bit = digitalPinToBitMask(pin);
	uint8_t port = digitalPinToPort(pin);

	if (port == NOT_A_PIN) return LOW;
    2356:	ed 23       	and	r30, r29
    2358:	81 e0       	ldi	r24, 0x01	; 1
    235a:	90 e0       	ldi	r25, 0x00	; 0
    235c:	21 f4       	brne	.+8      	; 0x2366 <digitalRead+0x4c>
    235e:	80 e0       	ldi	r24, 0x00	; 0
    2360:	02 c0       	rjmp	.+4      	; 0x2366 <digitalRead+0x4c>
    2362:	80 e0       	ldi	r24, 0x00	; 0
    2364:	90 e0       	ldi	r25, 0x00	; 0
	// before getting a digital reading.
	if (timer != NOT_ON_TIMER) turnOffPWM(timer);

	if (*portInputRegister(port) & bit) return HIGH;
	return LOW;
}
    2366:	df 91       	pop	r29
    2368:	cf 91       	pop	r28
    236a:	08 95       	ret

0000236c <__udivmodqi4>:
    236c:	99 1b       	sub	r25, r25
    236e:	79 e0       	ldi	r23, 0x09	; 9
    2370:	04 c0       	rjmp	.+8      	; 0x237a <__udivmodqi4_ep>

00002372 <__udivmodqi4_loop>:
    2372:	99 1f       	adc	r25, r25
    2374:	96 17       	cp	r25, r22
    2376:	08 f0       	brcs	.+2      	; 0x237a <__udivmodqi4_ep>
    2378:	96 1b       	sub	r25, r22

0000237a <__udivmodqi4_ep>:
    237a:	88 1f       	adc	r24, r24
    237c:	7a 95       	dec	r23
    237e:	c9 f7       	brne	.-14     	; 0x2372 <__udivmodqi4_loop>
    2380:	80 95       	com	r24
    2382:	08 95       	ret

00002384 <__udivmodhi4>:
    2384:	aa 1b       	sub	r26, r26
    2386:	bb 1b       	sub	r27, r27
    2388:	51 e1       	ldi	r21, 0x11	; 17
    238a:	07 c0       	rjmp	.+14     	; 0x239a <__udivmodhi4_ep>

0000238c <__udivmodhi4_loop>:
    238c:	aa 1f       	adc	r26, r26
    238e:	bb 1f       	adc	r27, r27
    2390:	a6 17       	cp	r26, r22
    2392:	b7 07       	cpc	r27, r23
    2394:	10 f0       	brcs	.+4      	; 0x239a <__udivmodhi4_ep>
    2396:	a6 1b       	sub	r26, r22
    2398:	b7 0b       	sbc	r27, r23

0000239a <__udivmodhi4_ep>:
    239a:	88 1f       	adc	r24, r24
    239c:	99 1f       	adc	r25, r25
    239e:	5a 95       	dec	r21
    23a0:	a9 f7       	brne	.-22     	; 0x238c <__udivmodhi4_loop>
    23a2:	80 95       	com	r24
    23a4:	90 95       	com	r25
    23a6:	bc 01       	movw	r22, r24
    23a8:	cd 01       	movw	r24, r26
    23aa:	08 95       	ret

000023ac <__divmodhi4>:
    23ac:	97 fb       	bst	r25, 7
    23ae:	07 2e       	mov	r0, r23
    23b0:	16 f4       	brtc	.+4      	; 0x23b6 <__divmodhi4+0xa>
    23b2:	00 94       	com	r0
    23b4:	07 d0       	rcall	.+14     	; 0x23c4 <__divmodhi4_neg1>
    23b6:	77 fd       	sbrc	r23, 7
    23b8:	09 d0       	rcall	.+18     	; 0x23cc <__divmodhi4_neg2>
    23ba:	0e 94 c2 11 	call	0x2384	; 0x2384 <__udivmodhi4>
    23be:	07 fc       	sbrc	r0, 7
    23c0:	05 d0       	rcall	.+10     	; 0x23cc <__divmodhi4_neg2>
    23c2:	3e f4       	brtc	.+14     	; 0x23d2 <__divmodhi4_exit>

000023c4 <__divmodhi4_neg1>:
    23c4:	90 95       	com	r25
    23c6:	81 95       	neg	r24
    23c8:	9f 4f       	sbci	r25, 0xFF	; 255
    23ca:	08 95       	ret

000023cc <__divmodhi4_neg2>:
    23cc:	70 95       	com	r23
    23ce:	61 95       	neg	r22
    23d0:	7f 4f       	sbci	r23, 0xFF	; 255

000023d2 <__divmodhi4_exit>:
    23d2:	08 95       	ret

000023d4 <__tablejump2__>:
    23d4:	ee 0f       	add	r30, r30
    23d6:	ff 1f       	adc	r31, r31
    23d8:	05 90       	lpm	r0, Z+
    23da:	f4 91       	lpm	r31, Z
    23dc:	e0 2d       	mov	r30, r0
    23de:	09 94       	ijmp

000023e0 <__subdi3>:
    23e0:	2a 19       	sub	r18, r10
    23e2:	3b 09       	sbc	r19, r11
    23e4:	4c 09       	sbc	r20, r12
    23e6:	5d 09       	sbc	r21, r13
    23e8:	6e 09       	sbc	r22, r14
    23ea:	7f 09       	sbc	r23, r15
    23ec:	80 0b       	sbc	r24, r16
    23ee:	91 0b       	sbc	r25, r17
    23f0:	08 95       	ret

000023f2 <__cmpdi2>:
    23f2:	2a 15       	cp	r18, r10
    23f4:	3b 05       	cpc	r19, r11
    23f6:	4c 05       	cpc	r20, r12
    23f8:	5d 05       	cpc	r21, r13
    23fa:	6e 05       	cpc	r22, r14
    23fc:	7f 05       	cpc	r23, r15
    23fe:	80 07       	cpc	r24, r16
    2400:	91 07       	cpc	r25, r17
    2402:	08 95       	ret

00002404 <malloc>:
    2404:	0f 93       	push	r16
    2406:	1f 93       	push	r17
    2408:	cf 93       	push	r28
    240a:	df 93       	push	r29
    240c:	82 30       	cpi	r24, 0x02	; 2
    240e:	91 05       	cpc	r25, r1
    2410:	10 f4       	brcc	.+4      	; 0x2416 <malloc+0x12>
    2412:	82 e0       	ldi	r24, 0x02	; 2
    2414:	90 e0       	ldi	r25, 0x00	; 0
    2416:	e0 91 7e 02 	lds	r30, 0x027E	; 0x80027e <__flp>
    241a:	f0 91 7f 02 	lds	r31, 0x027F	; 0x80027f <__flp+0x1>
    241e:	20 e0       	ldi	r18, 0x00	; 0
    2420:	30 e0       	ldi	r19, 0x00	; 0
    2422:	a0 e0       	ldi	r26, 0x00	; 0
    2424:	b0 e0       	ldi	r27, 0x00	; 0
    2426:	30 97       	sbiw	r30, 0x00	; 0
    2428:	19 f1       	breq	.+70     	; 0x2470 <malloc+0x6c>
    242a:	40 81       	ld	r20, Z
    242c:	51 81       	ldd	r21, Z+1	; 0x01
    242e:	02 81       	ldd	r16, Z+2	; 0x02
    2430:	13 81       	ldd	r17, Z+3	; 0x03
    2432:	48 17       	cp	r20, r24
    2434:	59 07       	cpc	r21, r25
    2436:	c8 f0       	brcs	.+50     	; 0x246a <malloc+0x66>
    2438:	84 17       	cp	r24, r20
    243a:	95 07       	cpc	r25, r21
    243c:	69 f4       	brne	.+26     	; 0x2458 <malloc+0x54>
    243e:	10 97       	sbiw	r26, 0x00	; 0
    2440:	31 f0       	breq	.+12     	; 0x244e <malloc+0x4a>
    2442:	12 96       	adiw	r26, 0x02	; 2
    2444:	0c 93       	st	X, r16
    2446:	12 97       	sbiw	r26, 0x02	; 2
    2448:	13 96       	adiw	r26, 0x03	; 3
    244a:	1c 93       	st	X, r17
    244c:	27 c0       	rjmp	.+78     	; 0x249c <malloc+0x98>
    244e:	00 93 7e 02 	sts	0x027E, r16	; 0x80027e <__flp>
    2452:	10 93 7f 02 	sts	0x027F, r17	; 0x80027f <__flp+0x1>
    2456:	22 c0       	rjmp	.+68     	; 0x249c <malloc+0x98>
    2458:	21 15       	cp	r18, r1
    245a:	31 05       	cpc	r19, r1
    245c:	19 f0       	breq	.+6      	; 0x2464 <malloc+0x60>
    245e:	42 17       	cp	r20, r18
    2460:	53 07       	cpc	r21, r19
    2462:	18 f4       	brcc	.+6      	; 0x246a <malloc+0x66>
    2464:	9a 01       	movw	r18, r20
    2466:	bd 01       	movw	r22, r26
    2468:	ef 01       	movw	r28, r30
    246a:	df 01       	movw	r26, r30
    246c:	f8 01       	movw	r30, r16
    246e:	db cf       	rjmp	.-74     	; 0x2426 <malloc+0x22>
    2470:	21 15       	cp	r18, r1
    2472:	31 05       	cpc	r19, r1
    2474:	f9 f0       	breq	.+62     	; 0x24b4 <malloc+0xb0>
    2476:	28 1b       	sub	r18, r24
    2478:	39 0b       	sbc	r19, r25
    247a:	24 30       	cpi	r18, 0x04	; 4
    247c:	31 05       	cpc	r19, r1
    247e:	80 f4       	brcc	.+32     	; 0x24a0 <malloc+0x9c>
    2480:	8a 81       	ldd	r24, Y+2	; 0x02
    2482:	9b 81       	ldd	r25, Y+3	; 0x03
    2484:	61 15       	cp	r22, r1
    2486:	71 05       	cpc	r23, r1
    2488:	21 f0       	breq	.+8      	; 0x2492 <malloc+0x8e>
    248a:	fb 01       	movw	r30, r22
    248c:	93 83       	std	Z+3, r25	; 0x03
    248e:	82 83       	std	Z+2, r24	; 0x02
    2490:	04 c0       	rjmp	.+8      	; 0x249a <malloc+0x96>
    2492:	90 93 7f 02 	sts	0x027F, r25	; 0x80027f <__flp+0x1>
    2496:	80 93 7e 02 	sts	0x027E, r24	; 0x80027e <__flp>
    249a:	fe 01       	movw	r30, r28
    249c:	32 96       	adiw	r30, 0x02	; 2
    249e:	44 c0       	rjmp	.+136    	; 0x2528 <malloc+0x124>
    24a0:	fe 01       	movw	r30, r28
    24a2:	e2 0f       	add	r30, r18
    24a4:	f3 1f       	adc	r31, r19
    24a6:	81 93       	st	Z+, r24
    24a8:	91 93       	st	Z+, r25
    24aa:	22 50       	subi	r18, 0x02	; 2
    24ac:	31 09       	sbc	r19, r1
    24ae:	39 83       	std	Y+1, r19	; 0x01
    24b0:	28 83       	st	Y, r18
    24b2:	3a c0       	rjmp	.+116    	; 0x2528 <malloc+0x124>
    24b4:	20 91 7c 02 	lds	r18, 0x027C	; 0x80027c <__brkval>
    24b8:	30 91 7d 02 	lds	r19, 0x027D	; 0x80027d <__brkval+0x1>
    24bc:	23 2b       	or	r18, r19
    24be:	41 f4       	brne	.+16     	; 0x24d0 <malloc+0xcc>
    24c0:	20 91 02 01 	lds	r18, 0x0102	; 0x800102 <__malloc_heap_start>
    24c4:	30 91 03 01 	lds	r19, 0x0103	; 0x800103 <__malloc_heap_start+0x1>
    24c8:	30 93 7d 02 	sts	0x027D, r19	; 0x80027d <__brkval+0x1>
    24cc:	20 93 7c 02 	sts	0x027C, r18	; 0x80027c <__brkval>
    24d0:	20 91 00 01 	lds	r18, 0x0100	; 0x800100 <__data_start>
    24d4:	30 91 01 01 	lds	r19, 0x0101	; 0x800101 <__data_start+0x1>
    24d8:	21 15       	cp	r18, r1
    24da:	31 05       	cpc	r19, r1
    24dc:	41 f4       	brne	.+16     	; 0x24ee <malloc+0xea>
    24de:	2d b7       	in	r18, 0x3d	; 61
    24e0:	3e b7       	in	r19, 0x3e	; 62
    24e2:	40 91 04 01 	lds	r20, 0x0104	; 0x800104 <__malloc_margin>
    24e6:	50 91 05 01 	lds	r21, 0x0105	; 0x800105 <__malloc_margin+0x1>
    24ea:	24 1b       	sub	r18, r20
    24ec:	35 0b       	sbc	r19, r21
    24ee:	e0 91 7c 02 	lds	r30, 0x027C	; 0x80027c <__brkval>
    24f2:	f0 91 7d 02 	lds	r31, 0x027D	; 0x80027d <__brkval+0x1>
    24f6:	e2 17       	cp	r30, r18
    24f8:	f3 07       	cpc	r31, r19
    24fa:	a0 f4       	brcc	.+40     	; 0x2524 <malloc+0x120>
    24fc:	2e 1b       	sub	r18, r30
    24fe:	3f 0b       	sbc	r19, r31
    2500:	28 17       	cp	r18, r24
    2502:	39 07       	cpc	r19, r25
    2504:	78 f0       	brcs	.+30     	; 0x2524 <malloc+0x120>
    2506:	ac 01       	movw	r20, r24
    2508:	4e 5f       	subi	r20, 0xFE	; 254
    250a:	5f 4f       	sbci	r21, 0xFF	; 255
    250c:	24 17       	cp	r18, r20
    250e:	35 07       	cpc	r19, r21
    2510:	48 f0       	brcs	.+18     	; 0x2524 <malloc+0x120>
    2512:	4e 0f       	add	r20, r30
    2514:	5f 1f       	adc	r21, r31
    2516:	50 93 7d 02 	sts	0x027D, r21	; 0x80027d <__brkval+0x1>
    251a:	40 93 7c 02 	sts	0x027C, r20	; 0x80027c <__brkval>
    251e:	81 93       	st	Z+, r24
    2520:	91 93       	st	Z+, r25
    2522:	02 c0       	rjmp	.+4      	; 0x2528 <malloc+0x124>
    2524:	e0 e0       	ldi	r30, 0x00	; 0
    2526:	f0 e0       	ldi	r31, 0x00	; 0
    2528:	cf 01       	movw	r24, r30
    252a:	df 91       	pop	r29
    252c:	cf 91       	pop	r28
    252e:	1f 91       	pop	r17
    2530:	0f 91       	pop	r16
    2532:	08 95       	ret

00002534 <free>:
    2534:	cf 93       	push	r28
    2536:	df 93       	push	r29
    2538:	00 97       	sbiw	r24, 0x00	; 0
    253a:	09 f4       	brne	.+2      	; 0x253e <free+0xa>
    253c:	81 c0       	rjmp	.+258    	; 0x2640 <free+0x10c>
    253e:	fc 01       	movw	r30, r24
    2540:	32 97       	sbiw	r30, 0x02	; 2
    2542:	13 82       	std	Z+3, r1	; 0x03
    2544:	12 82       	std	Z+2, r1	; 0x02
    2546:	a0 91 7e 02 	lds	r26, 0x027E	; 0x80027e <__flp>
    254a:	b0 91 7f 02 	lds	r27, 0x027F	; 0x80027f <__flp+0x1>
    254e:	10 97       	sbiw	r26, 0x00	; 0
    2550:	81 f4       	brne	.+32     	; 0x2572 <free+0x3e>
    2552:	20 81       	ld	r18, Z
    2554:	31 81       	ldd	r19, Z+1	; 0x01
    2556:	82 0f       	add	r24, r18
    2558:	93 1f       	adc	r25, r19
    255a:	20 91 7c 02 	lds	r18, 0x027C	; 0x80027c <__brkval>
    255e:	30 91 7d 02 	lds	r19, 0x027D	; 0x80027d <__brkval+0x1>
    2562:	28 17       	cp	r18, r24
    2564:	39 07       	cpc	r19, r25
    2566:	51 f5       	brne	.+84     	; 0x25bc <free+0x88>
    2568:	f0 93 7d 02 	sts	0x027D, r31	; 0x80027d <__brkval+0x1>
    256c:	e0 93 7c 02 	sts	0x027C, r30	; 0x80027c <__brkval>
    2570:	67 c0       	rjmp	.+206    	; 0x2640 <free+0x10c>
    2572:	ed 01       	movw	r28, r26
    2574:	20 e0       	ldi	r18, 0x00	; 0
    2576:	30 e0       	ldi	r19, 0x00	; 0
    2578:	ce 17       	cp	r28, r30
    257a:	df 07       	cpc	r29, r31
    257c:	40 f4       	brcc	.+16     	; 0x258e <free+0x5a>
    257e:	4a 81       	ldd	r20, Y+2	; 0x02
    2580:	5b 81       	ldd	r21, Y+3	; 0x03
    2582:	9e 01       	movw	r18, r28
    2584:	41 15       	cp	r20, r1
    2586:	51 05       	cpc	r21, r1
    2588:	f1 f0       	breq	.+60     	; 0x25c6 <free+0x92>
    258a:	ea 01       	movw	r28, r20
    258c:	f5 cf       	rjmp	.-22     	; 0x2578 <free+0x44>
    258e:	d3 83       	std	Z+3, r29	; 0x03
    2590:	c2 83       	std	Z+2, r28	; 0x02
    2592:	40 81       	ld	r20, Z
    2594:	51 81       	ldd	r21, Z+1	; 0x01
    2596:	84 0f       	add	r24, r20
    2598:	95 1f       	adc	r25, r21
    259a:	c8 17       	cp	r28, r24
    259c:	d9 07       	cpc	r29, r25
    259e:	59 f4       	brne	.+22     	; 0x25b6 <free+0x82>
    25a0:	88 81       	ld	r24, Y
    25a2:	99 81       	ldd	r25, Y+1	; 0x01
    25a4:	84 0f       	add	r24, r20
    25a6:	95 1f       	adc	r25, r21
    25a8:	02 96       	adiw	r24, 0x02	; 2
    25aa:	91 83       	std	Z+1, r25	; 0x01
    25ac:	80 83       	st	Z, r24
    25ae:	8a 81       	ldd	r24, Y+2	; 0x02
    25b0:	9b 81       	ldd	r25, Y+3	; 0x03
    25b2:	93 83       	std	Z+3, r25	; 0x03
    25b4:	82 83       	std	Z+2, r24	; 0x02
    25b6:	21 15       	cp	r18, r1
    25b8:	31 05       	cpc	r19, r1
    25ba:	29 f4       	brne	.+10     	; 0x25c6 <free+0x92>
    25bc:	f0 93 7f 02 	sts	0x027F, r31	; 0x80027f <__flp+0x1>
    25c0:	e0 93 7e 02 	sts	0x027E, r30	; 0x80027e <__flp>
    25c4:	3d c0       	rjmp	.+122    	; 0x2640 <free+0x10c>
    25c6:	e9 01       	movw	r28, r18
    25c8:	fb 83       	std	Y+3, r31	; 0x03
    25ca:	ea 83       	std	Y+2, r30	; 0x02
    25cc:	49 91       	ld	r20, Y+
    25ce:	59 91       	ld	r21, Y+
    25d0:	c4 0f       	add	r28, r20
    25d2:	d5 1f       	adc	r29, r21
    25d4:	ec 17       	cp	r30, r28
    25d6:	fd 07       	cpc	r31, r29
    25d8:	61 f4       	brne	.+24     	; 0x25f2 <free+0xbe>
    25da:	80 81       	ld	r24, Z
    25dc:	91 81       	ldd	r25, Z+1	; 0x01
    25de:	84 0f       	add	r24, r20
    25e0:	95 1f       	adc	r25, r21
    25e2:	02 96       	adiw	r24, 0x02	; 2
    25e4:	e9 01       	movw	r28, r18
    25e6:	99 83       	std	Y+1, r25	; 0x01
    25e8:	88 83       	st	Y, r24
    25ea:	82 81       	ldd	r24, Z+2	; 0x02
    25ec:	93 81       	ldd	r25, Z+3	; 0x03
    25ee:	9b 83       	std	Y+3, r25	; 0x03
    25f0:	8a 83       	std	Y+2, r24	; 0x02
    25f2:	e0 e0       	ldi	r30, 0x00	; 0
    25f4:	f0 e0       	ldi	r31, 0x00	; 0
    25f6:	12 96       	adiw	r26, 0x02	; 2
    25f8:	8d 91       	ld	r24, X+
    25fa:	9c 91       	ld	r25, X
    25fc:	13 97       	sbiw	r26, 0x03	; 3
    25fe:	00 97       	sbiw	r24, 0x00	; 0
    2600:	19 f0       	breq	.+6      	; 0x2608 <free+0xd4>
    2602:	fd 01       	movw	r30, r26
    2604:	dc 01       	movw	r26, r24
    2606:	f7 cf       	rjmp	.-18     	; 0x25f6 <free+0xc2>
    2608:	8d 91       	ld	r24, X+
    260a:	9c 91       	ld	r25, X
    260c:	11 97       	sbiw	r26, 0x01	; 1
    260e:	9d 01       	movw	r18, r26
    2610:	2e 5f       	subi	r18, 0xFE	; 254
    2612:	3f 4f       	sbci	r19, 0xFF	; 255
    2614:	82 0f       	add	r24, r18
    2616:	93 1f       	adc	r25, r19
    2618:	20 91 7c 02 	lds	r18, 0x027C	; 0x80027c <__brkval>
    261c:	30 91 7d 02 	lds	r19, 0x027D	; 0x80027d <__brkval+0x1>
    2620:	28 17       	cp	r18, r24
    2622:	39 07       	cpc	r19, r25
    2624:	69 f4       	brne	.+26     	; 0x2640 <free+0x10c>
    2626:	30 97       	sbiw	r30, 0x00	; 0
    2628:	29 f4       	brne	.+10     	; 0x2634 <free+0x100>
    262a:	10 92 7f 02 	sts	0x027F, r1	; 0x80027f <__flp+0x1>
    262e:	10 92 7e 02 	sts	0x027E, r1	; 0x80027e <__flp>
    2632:	02 c0       	rjmp	.+4      	; 0x2638 <free+0x104>
    2634:	13 82       	std	Z+3, r1	; 0x03
    2636:	12 82       	std	Z+2, r1	; 0x02
    2638:	b0 93 7d 02 	sts	0x027D, r27	; 0x80027d <__brkval+0x1>
    263c:	a0 93 7c 02 	sts	0x027C, r26	; 0x80027c <__brkval>
    2640:	df 91       	pop	r29
    2642:	cf 91       	pop	r28
    2644:	08 95       	ret

00002646 <eeprom_read_byte>:
    2646:	f9 99       	sbic	0x1f, 1	; 31
    2648:	fe cf       	rjmp	.-4      	; 0x2646 <eeprom_read_byte>
    264a:	92 bd       	out	0x22, r25	; 34
    264c:	81 bd       	out	0x21, r24	; 33
    264e:	f8 9a       	sbi	0x1f, 0	; 31
    2650:	99 27       	eor	r25, r25
    2652:	80 b5       	in	r24, 0x20	; 32
    2654:	08 95       	ret

00002656 <eeprom_update_byte>:
    2656:	26 2f       	mov	r18, r22

00002658 <eeprom_update_r18>:
    2658:	f9 99       	sbic	0x1f, 1	; 31
    265a:	fe cf       	rjmp	.-4      	; 0x2658 <eeprom_update_r18>
    265c:	92 bd       	out	0x22, r25	; 34
    265e:	81 bd       	out	0x21, r24	; 33
    2660:	f8 9a       	sbi	0x1f, 0	; 31
    2662:	01 97       	sbiw	r24, 0x01	; 1
    2664:	00 b4       	in	r0, 0x20	; 32
    2666:	02 16       	cp	r0, r18
    2668:	39 f0       	breq	.+14     	; 0x2678 <eeprom_update_r18+0x20>
    266a:	1f ba       	out	0x1f, r1	; 31
    266c:	20 bd       	out	0x20, r18	; 32
    266e:	0f b6       	in	r0, 0x3f	; 63
    2670:	f8 94       	cli
    2672:	fa 9a       	sbi	0x1f, 2	; 31
    2674:	f9 9a       	sbi	0x1f, 1	; 31
    2676:	0f be       	out	0x3f, r0	; 63
    2678:	08 95       	ret

0000267a <eeprom_write_byte>:
    267a:	26 2f       	mov	r18, r22

0000267c <eeprom_write_r18>:
    267c:	f9 99       	sbic	0x1f, 1	; 31
    267e:	fe cf       	rjmp	.-4      	; 0x267c <eeprom_write_r18>
    2680:	1f ba       	out	0x1f, r1	; 31
    2682:	92 bd       	out	0x22, r25	; 34
    2684:	81 bd       	out	0x21, r24	; 33
    2686:	20 bd       	out	0x20, r18	; 32
    2688:	0f b6       	in	r0, 0x3f	; 63
    268a:	f8 94       	cli
    268c:	fa 9a       	sbi	0x1f, 2	; 31
    268e:	f9 9a       	sbi	0x1f, 1	; 31
    2690:	0f be       	out	0x3f, r0	; 63
    2692:	01 96       	adiw	r24, 0x01	; 1
    2694:	08 95       	ret

00002696 <_exit>:
    2696:	f8 94       	cli

00002698 <__stop_program>:
    2698:	ff cf       	rjmp	.-2      	; 0x2698 <__stop_program>
